Archive member included to satisfy reference by file (symbol)

C:/Users/a5143778/Documents/MC_Greece/MC_Greece/RA6T2_MCIHV1_IPM_LESS_FOC_WHOLE_PFC_E2S_V100/src/application/user_interface/ics/ICS2_RA6T2.o(ICS2_RA6T2.o)
                              ./src/application/user_interface/ics/r_mtr_ics.o (ics2_watchpoint)
C:\Users\a5143778\Documents\MC_Greece\MC_Greece\RA6T2_MCIHV1_IPM_LESS_FOC_WHOLE_PFC_E2S_V100\src\application\motor_module\current\libr_motor_current_bemf_observer.a(r_motor_current_bemf_observer.o)
                              ./src/application/motor_module/current/r_motor_current.o (motor_current_bemf_observer_start)
C:\Users\a5143778\Documents\MC_Greece\MC_Greece\RA6T2_MCIHV1_IPM_LESS_FOC_WHOLE_PFC_E2S_V100\src\application\motor_module\current\libr_motor_current_lowspd_sensorless.a(r_motor_current_lowspd_sensorless.o)
                              ./src/application/motor_module/current/r_motor_current_api.o (motor_current_lowspdsensorless_init)
C:\Users\a5143778\Documents\MC_Greece\MC_Greece\RA6T2_MCIHV1_IPM_LESS_FOC_WHOLE_PFC_E2S_V100\src\application\motor_module\current\libr_motor_current_stall_detection.a(r_motor_current_stall_detection.o)
                              ./src/application/motor_module/current/r_motor_current_api.o (motor_current_stall_detection_init)
C:\Users\a5143778\Documents\MC_Greece\MC_Greece\RA6T2_MCIHV1_IPM_LESS_FOC_WHOLE_PFC_E2S_V100\src\application\motor_module\current\libr_motor_current_trq_vib_comp.a(r_motor_current_trq_vib_comp.o)
                              ./src/application/motor_module/current/r_motor_current_api.o (motor_current_trq_vibration_compensation_init)
C:\Users\a5143778\Documents\MC_Greece\MC_Greece\RA6T2_MCIHV1_IPM_LESS_FOC_WHOLE_PFC_E2S_V100\src\application\motor_module\current\libr_motor_current_volt_err_comp.a(r_motor_current_volt_err_comp.o)
                              ./src/application/motor_module/current/r_motor_current_api.o (motor_current_volt_err_comp_init)
C:\Users\a5143778\Documents\MC_Greece\MC_Greece\RA6T2_MCIHV1_IPM_LESS_FOC_WHOLE_PFC_E2S_V100\src\application\motor_module\sensorless_vector\libr_motor_sensorless_vector_flyingstart.a(r_motor_sensorless_vector_flyingstart.o)
                              ./src/application/motor_module/sensorless_vector/r_motor_sensorless_vector_api.o (motor_flying_start_init)
C:\Users\a5143778\Documents\MC_Greece\MC_Greece\RA6T2_MCIHV1_IPM_LESS_FOC_WHOLE_PFC_E2S_V100\src\application\motor_module\speed\libr_motor_speed_extobserver.a(r_motor_speed_extobserver.o)
                              ./src/application/motor_module/speed/r_motor_speed_api.o (motor_speed_extobserver_init)
C:\Users\a5143778\Documents\MC_Greece\MC_Greece\RA6T2_MCIHV1_IPM_LESS_FOC_WHOLE_PFC_E2S_V100\src\application\motor_module\speed\libr_motor_speed_fluxwkn.a(r_motor_speed_fluxwkn.o)
                              ./src/application/motor_module/speed/r_motor_speed_api.o (motor_speed_flux_weakn_reset)
C:/Program Files (x86)/Arm GNU Toolchain arm-none-eabi/13.3 rel1/bin/../lib/gcc/arm-none-eabi/13.3.1/thumb/v8-m.main+fp/hard\libgcc.a(_arm_addsubdf3.o)
                              ./src/application/motor_module/current/r_motor_current_api.o (__aeabi_f2d)
C:/Program Files (x86)/Arm GNU Toolchain arm-none-eabi/13.3 rel1/bin/../lib/gcc/arm-none-eabi/13.3.1/thumb/v8-m.main+fp/hard\libgcc.a(_arm_truncdfsf2.o)
                              ./src/application/motor_module/current/r_motor_current_api.o (__aeabi_d2f)
C:/Program Files (x86)/Arm GNU Toolchain arm-none-eabi/13.3 rel1/bin/../lib/gcc/arm-none-eabi/13.3.1/thumb/v8-m.main+fp/hard\libg_nano.a(libc_a-exit.o)
                              C:/Program Files (x86)/Arm GNU Toolchain arm-none-eabi/13.3 rel1/bin/../lib/gcc/arm-none-eabi/13.3.1/thumb/v8-m.main+fp/hard/rdimon-crt0.o (exit)
C:/Program Files (x86)/Arm GNU Toolchain arm-none-eabi/13.3 rel1/bin/../lib/gcc/arm-none-eabi/13.3.1/thumb/v8-m.main+fp/hard\libg_nano.a(libc_a-findfp.o)
                              C:/Program Files (x86)/Arm GNU Toolchain arm-none-eabi/13.3 rel1/bin/../lib/gcc/arm-none-eabi/13.3.1/thumb/v8-m.main+fp/hard\libg_nano.a(libc_a-exit.o) (__stdio_exit_handler)
C:/Program Files (x86)/Arm GNU Toolchain arm-none-eabi/13.3 rel1/bin/../lib/gcc/arm-none-eabi/13.3.1/thumb/v8-m.main+fp/hard\libg_nano.a(libc_a-fwalk.o)
                              C:/Program Files (x86)/Arm GNU Toolchain arm-none-eabi/13.3 rel1/bin/../lib/gcc/arm-none-eabi/13.3.1/thumb/v8-m.main+fp/hard\libg_nano.a(libc_a-findfp.o) (_fwalk_sglue)
C:/Program Files (x86)/Arm GNU Toolchain arm-none-eabi/13.3 rel1/bin/../lib/gcc/arm-none-eabi/13.3.1/thumb/v8-m.main+fp/hard\libg_nano.a(libc_a-stdio.o)
                              C:/Program Files (x86)/Arm GNU Toolchain arm-none-eabi/13.3 rel1/bin/../lib/gcc/arm-none-eabi/13.3.1/thumb/v8-m.main+fp/hard\libg_nano.a(libc_a-findfp.o) (__sread)
C:/Program Files (x86)/Arm GNU Toolchain arm-none-eabi/13.3 rel1/bin/../lib/gcc/arm-none-eabi/13.3.1/thumb/v8-m.main+fp/hard\libg_nano.a(libc_a-memset.o)
                              C:/Program Files (x86)/Arm GNU Toolchain arm-none-eabi/13.3 rel1/bin/../lib/gcc/arm-none-eabi/13.3.1/thumb/v8-m.main+fp/hard/rdimon-crt0.o (memset)
C:/Program Files (x86)/Arm GNU Toolchain arm-none-eabi/13.3 rel1/bin/../lib/gcc/arm-none-eabi/13.3.1/thumb/v8-m.main+fp/hard\libg_nano.a(libc_a-closer.o)
                              C:/Program Files (x86)/Arm GNU Toolchain arm-none-eabi/13.3 rel1/bin/../lib/gcc/arm-none-eabi/13.3.1/thumb/v8-m.main+fp/hard\libg_nano.a(libc_a-stdio.o) (_close_r)
C:/Program Files (x86)/Arm GNU Toolchain arm-none-eabi/13.3 rel1/bin/../lib/gcc/arm-none-eabi/13.3.1/thumb/v8-m.main+fp/hard\libg_nano.a(libc_a-reent.o)
                              C:/Program Files (x86)/Arm GNU Toolchain arm-none-eabi/13.3 rel1/bin/../lib/gcc/arm-none-eabi/13.3.1/thumb/v8-m.main+fp/hard\libg_nano.a(libc_a-closer.o) (errno)
C:/Program Files (x86)/Arm GNU Toolchain arm-none-eabi/13.3 rel1/bin/../lib/gcc/arm-none-eabi/13.3.1/thumb/v8-m.main+fp/hard\libg_nano.a(libc_a-impure.o)
                              C:/Program Files (x86)/Arm GNU Toolchain arm-none-eabi/13.3 rel1/bin/../lib/gcc/arm-none-eabi/13.3.1/thumb/v8-m.main+fp/hard\libg_nano.a(libc_a-reent.o) (_impure_ptr)
C:/Program Files (x86)/Arm GNU Toolchain arm-none-eabi/13.3 rel1/bin/../lib/gcc/arm-none-eabi/13.3.1/thumb/v8-m.main+fp/hard\libg_nano.a(libc_a-lseekr.o)
                              C:/Program Files (x86)/Arm GNU Toolchain arm-none-eabi/13.3 rel1/bin/../lib/gcc/arm-none-eabi/13.3.1/thumb/v8-m.main+fp/hard\libg_nano.a(libc_a-stdio.o) (_lseek_r)
C:/Program Files (x86)/Arm GNU Toolchain arm-none-eabi/13.3 rel1/bin/../lib/gcc/arm-none-eabi/13.3.1/thumb/v8-m.main+fp/hard\libg_nano.a(libc_a-readr.o)
                              C:/Program Files (x86)/Arm GNU Toolchain arm-none-eabi/13.3 rel1/bin/../lib/gcc/arm-none-eabi/13.3.1/thumb/v8-m.main+fp/hard\libg_nano.a(libc_a-stdio.o) (_read_r)
C:/Program Files (x86)/Arm GNU Toolchain arm-none-eabi/13.3 rel1/bin/../lib/gcc/arm-none-eabi/13.3.1/thumb/v8-m.main+fp/hard\libg_nano.a(libc_a-writer.o)
                              C:/Program Files (x86)/Arm GNU Toolchain arm-none-eabi/13.3 rel1/bin/../lib/gcc/arm-none-eabi/13.3.1/thumb/v8-m.main+fp/hard\libg_nano.a(libc_a-stdio.o) (_write_r)
C:/Program Files (x86)/Arm GNU Toolchain arm-none-eabi/13.3 rel1/bin/../lib/gcc/arm-none-eabi/13.3.1/thumb/v8-m.main+fp/hard\libg_nano.a(libc_a-errno.o)
                              ./ra/fsp/src/bsp/mcu/all/bsp_sbrk.o (__errno)
C:/Program Files (x86)/Arm GNU Toolchain arm-none-eabi/13.3 rel1/bin/../lib/gcc/arm-none-eabi/13.3.1/thumb/v8-m.main+fp/hard\libg_nano.a(libc_a-init.o)
                              C:/Program Files (x86)/Arm GNU Toolchain arm-none-eabi/13.3 rel1/bin/../lib/gcc/arm-none-eabi/13.3.1/thumb/v8-m.main+fp/hard/rdimon-crt0.o (__libc_init_array)
C:/Program Files (x86)/Arm GNU Toolchain arm-none-eabi/13.3 rel1/bin/../lib/gcc/arm-none-eabi/13.3.1/thumb/v8-m.main+fp/hard\libg_nano.a(libc_a-lock.o)
                              C:/Program Files (x86)/Arm GNU Toolchain arm-none-eabi/13.3 rel1/bin/../lib/gcc/arm-none-eabi/13.3.1/thumb/v8-m.main+fp/hard\libg_nano.a(libc_a-findfp.o) (__retarget_lock_init_recursive)
C:/Program Files (x86)/Arm GNU Toolchain arm-none-eabi/13.3 rel1/bin/../lib/gcc/arm-none-eabi/13.3.1/thumb/v8-m.main+fp/hard\libg_nano.a(libc_a-memcpy-stub.o)
                              ./ra/fsp/src/bsp/cmsis/Device/RENESAS/Source/system.o (memcpy)
C:/Program Files (x86)/Arm GNU Toolchain arm-none-eabi/13.3 rel1/bin/../lib/gcc/arm-none-eabi/13.3.1/thumb/v8-m.main+fp/hard\libg_nano.a(libc_a-freer.o)
                              C:/Program Files (x86)/Arm GNU Toolchain arm-none-eabi/13.3 rel1/bin/../lib/gcc/arm-none-eabi/13.3.1/thumb/v8-m.main+fp/hard\libg_nano.a(libc_a-reent.o) (_free_r)
C:/Program Files (x86)/Arm GNU Toolchain arm-none-eabi/13.3 rel1/bin/../lib/gcc/arm-none-eabi/13.3.1/thumb/v8-m.main+fp/hard\libg_nano.a(libc_a-mallocr.o)
                              C:/Program Files (x86)/Arm GNU Toolchain arm-none-eabi/13.3 rel1/bin/../lib/gcc/arm-none-eabi/13.3.1/thumb/v8-m.main+fp/hard\libg_nano.a(libc_a-findfp.o) (_malloc_r)
C:/Program Files (x86)/Arm GNU Toolchain arm-none-eabi/13.3 rel1/bin/../lib/gcc/arm-none-eabi/13.3.1/thumb/v8-m.main+fp/hard\libg_nano.a(libc_a-mlock.o)
                              C:/Program Files (x86)/Arm GNU Toolchain arm-none-eabi/13.3 rel1/bin/../lib/gcc/arm-none-eabi/13.3.1/thumb/v8-m.main+fp/hard\libg_nano.a(libc_a-freer.o) (__malloc_lock)
C:/Program Files (x86)/Arm GNU Toolchain arm-none-eabi/13.3 rel1/bin/../lib/gcc/arm-none-eabi/13.3.1/thumb/v8-m.main+fp/hard\libg_nano.a(libc_a-fflush.o)
                              C:/Program Files (x86)/Arm GNU Toolchain arm-none-eabi/13.3 rel1/bin/../lib/gcc/arm-none-eabi/13.3.1/thumb/v8-m.main+fp/hard\libg_nano.a(libc_a-findfp.o) (_fflush_r)
C:/Program Files (x86)/Arm GNU Toolchain arm-none-eabi/13.3 rel1/bin/../lib/gcc/arm-none-eabi/13.3.1/thumb/v8-m.main+fp/hard\libg_nano.a(libc_a-sbrkr.o)
                              C:/Program Files (x86)/Arm GNU Toolchain arm-none-eabi/13.3 rel1/bin/../lib/gcc/arm-none-eabi/13.3.1/thumb/v8-m.main+fp/hard\libg_nano.a(libc_a-mallocr.o) (_sbrk_r)
C:/Program Files (x86)/Arm GNU Toolchain arm-none-eabi/13.3 rel1/bin/../lib/gcc/arm-none-eabi/13.3.1/thumb/v8-m.main+fp/hard\librdimon_nano.a(arm_librdimon_a-_exit.o)
                              C:/Program Files (x86)/Arm GNU Toolchain arm-none-eabi/13.3 rel1/bin/../lib/gcc/arm-none-eabi/13.3.1/thumb/v8-m.main+fp/hard\libg_nano.a(libc_a-exit.o) (_exit)
C:/Program Files (x86)/Arm GNU Toolchain arm-none-eabi/13.3 rel1/bin/../lib/gcc/arm-none-eabi/13.3.1/thumb/v8-m.main+fp/hard\librdimon_nano.a(arm_librdimon_a-_kill.o)
                              C:/Program Files (x86)/Arm GNU Toolchain arm-none-eabi/13.3 rel1/bin/../lib/gcc/arm-none-eabi/13.3.1/thumb/v8-m.main+fp/hard\librdimon_nano.a(arm_librdimon_a-_exit.o) (_kill_shared)
C:/Program Files (x86)/Arm GNU Toolchain arm-none-eabi/13.3 rel1/bin/../lib/gcc/arm-none-eabi/13.3.1/thumb/v8-m.main+fp/hard\librdimon_nano.a(arm_librdimon_a-syscalls.o)
                              C:/Program Files (x86)/Arm GNU Toolchain arm-none-eabi/13.3 rel1/bin/../lib/gcc/arm-none-eabi/13.3.1/thumb/v8-m.main+fp/hard\libg_nano.a(libc_a-readr.o) (_read)
C:/Program Files (x86)/Arm GNU Toolchain arm-none-eabi/13.3 rel1/bin/../lib/gcc/arm-none-eabi/13.3.1/thumb/v8-m.main+fp/hard\libc_nano.a(libc_a-strlen.o)
                              C:/Program Files (x86)/Arm GNU Toolchain arm-none-eabi/13.3 rel1/bin/../lib/gcc/arm-none-eabi/13.3.1/thumb/v8-m.main+fp/hard\librdimon_nano.a(arm_librdimon_a-syscalls.o) (strlen)
C:/Program Files (x86)/Arm GNU Toolchain arm-none-eabi/13.3 rel1/bin/../lib/gcc/arm-none-eabi/13.3.1/thumb/v8-m.main+fp/hard\libm.a(libm_a-w_sqrt.o)
                              ./src/application/motor_module/current/r_motor_current_api.o (sqrt)
C:/Program Files (x86)/Arm GNU Toolchain arm-none-eabi/13.3 rel1/bin/../lib/gcc/arm-none-eabi/13.3.1/thumb/v8-m.main+fp/hard\libm.a(libm_a-wf_atan2.o)
                              C:\Users\a5143778\Documents\MC_Greece\MC_Greece\RA6T2_MCIHV1_IPM_LESS_FOC_WHOLE_PFC_E2S_V100\src\application\motor_module\sensorless_vector\libr_motor_sensorless_vector_flyingstart.a(r_motor_sensorless_vector_flyingstart.o) (atan2f)
C:/Program Files (x86)/Arm GNU Toolchain arm-none-eabi/13.3 rel1/bin/../lib/gcc/arm-none-eabi/13.3.1/thumb/v8-m.main+fp/hard\libm.a(libm_a-wf_sqrt.o)
                              ./src/application/motor_module/current/r_motor_current.o (sqrtf)
C:/Program Files (x86)/Arm GNU Toolchain arm-none-eabi/13.3 rel1/bin/../lib/gcc/arm-none-eabi/13.3.1/thumb/v8-m.main+fp/hard\libm.a(libm_a-sf_atan.o)
                              ./src/application/motor_module/current/r_motor_current.o (atanf)
C:/Program Files (x86)/Arm GNU Toolchain arm-none-eabi/13.3 rel1/bin/../lib/gcc/arm-none-eabi/13.3.1/thumb/v8-m.main+fp/hard\libm.a(libm_a-sf_cos.o)
                              ./src/application/motor_module/current/r_motor_current.o (cosf)
C:/Program Files (x86)/Arm GNU Toolchain arm-none-eabi/13.3 rel1/bin/../lib/gcc/arm-none-eabi/13.3.1/thumb/v8-m.main+fp/hard\libm.a(libm_a-sf_fabs.o)
                              C:/Program Files (x86)/Arm GNU Toolchain arm-none-eabi/13.3 rel1/bin/../lib/gcc/arm-none-eabi/13.3.1/thumb/v8-m.main+fp/hard\libm.a(libm_a-sf_atan.o) (fabsf)
C:/Program Files (x86)/Arm GNU Toolchain arm-none-eabi/13.3 rel1/bin/../lib/gcc/arm-none-eabi/13.3.1/thumb/v8-m.main+fp/hard\libm.a(libm_a-sf_sin.o)
                              ./src/application/motor_module/current/r_motor_current.o (sinf)
C:/Program Files (x86)/Arm GNU Toolchain arm-none-eabi/13.3 rel1/bin/../lib/gcc/arm-none-eabi/13.3.1/thumb/v8-m.main+fp/hard\libm.a(libm_a-e_sqrt.o)
                              C:/Program Files (x86)/Arm GNU Toolchain arm-none-eabi/13.3 rel1/bin/../lib/gcc/arm-none-eabi/13.3.1/thumb/v8-m.main+fp/hard\libm.a(libm_a-w_sqrt.o) (__ieee754_sqrt)
C:/Program Files (x86)/Arm GNU Toolchain arm-none-eabi/13.3 rel1/bin/../lib/gcc/arm-none-eabi/13.3.1/thumb/v8-m.main+fp/hard\libm.a(libm_a-ef_sqrt.o)
                              C:/Program Files (x86)/Arm GNU Toolchain arm-none-eabi/13.3 rel1/bin/../lib/gcc/arm-none-eabi/13.3.1/thumb/v8-m.main+fp/hard\libm.a(libm_a-wf_sqrt.o) (__ieee754_sqrtf)
C:/Program Files (x86)/Arm GNU Toolchain arm-none-eabi/13.3 rel1/bin/../lib/gcc/arm-none-eabi/13.3.1/thumb/v8-m.main+fp/hard\libm.a(libm_a-kf_cos.o)
                              C:/Program Files (x86)/Arm GNU Toolchain arm-none-eabi/13.3 rel1/bin/../lib/gcc/arm-none-eabi/13.3.1/thumb/v8-m.main+fp/hard\libm.a(libm_a-sf_cos.o) (__kernel_cosf)
C:/Program Files (x86)/Arm GNU Toolchain arm-none-eabi/13.3 rel1/bin/../lib/gcc/arm-none-eabi/13.3.1/thumb/v8-m.main+fp/hard\libm.a(libm_a-kf_sin.o)
                              C:/Program Files (x86)/Arm GNU Toolchain arm-none-eabi/13.3 rel1/bin/../lib/gcc/arm-none-eabi/13.3.1/thumb/v8-m.main+fp/hard\libm.a(libm_a-sf_cos.o) (__kernel_sinf)
C:/Program Files (x86)/Arm GNU Toolchain arm-none-eabi/13.3 rel1/bin/../lib/gcc/arm-none-eabi/13.3.1/thumb/v8-m.main+fp/hard\libm.a(libm_a-ef_atan2.o)
                              C:/Program Files (x86)/Arm GNU Toolchain arm-none-eabi/13.3 rel1/bin/../lib/gcc/arm-none-eabi/13.3.1/thumb/v8-m.main+fp/hard\libm.a(libm_a-wf_atan2.o) (__ieee754_atan2f)
C:/Program Files (x86)/Arm GNU Toolchain arm-none-eabi/13.3 rel1/bin/../lib/gcc/arm-none-eabi/13.3.1/thumb/v8-m.main+fp/hard\libm.a(libm_a-ef_rem_pio2.o)
                              C:/Program Files (x86)/Arm GNU Toolchain arm-none-eabi/13.3 rel1/bin/../lib/gcc/arm-none-eabi/13.3.1/thumb/v8-m.main+fp/hard\libm.a(libm_a-sf_cos.o) (__ieee754_rem_pio2f)
C:/Program Files (x86)/Arm GNU Toolchain arm-none-eabi/13.3 rel1/bin/../lib/gcc/arm-none-eabi/13.3.1/thumb/v8-m.main+fp/hard\libm.a(libm_a-kf_rem_pio2.o)
                              C:/Program Files (x86)/Arm GNU Toolchain arm-none-eabi/13.3 rel1/bin/../lib/gcc/arm-none-eabi/13.3.1/thumb/v8-m.main+fp/hard\libm.a(libm_a-ef_rem_pio2.o) (__kernel_rem_pio2f)
C:/Program Files (x86)/Arm GNU Toolchain arm-none-eabi/13.3 rel1/bin/../lib/gcc/arm-none-eabi/13.3.1/thumb/v8-m.main+fp/hard\libm.a(libm_a-sf_scalbn.o)
                              C:/Program Files (x86)/Arm GNU Toolchain arm-none-eabi/13.3 rel1/bin/../lib/gcc/arm-none-eabi/13.3.1/thumb/v8-m.main+fp/hard\libm.a(libm_a-kf_rem_pio2.o) (scalbnf)
C:/Program Files (x86)/Arm GNU Toolchain arm-none-eabi/13.3 rel1/bin/../lib/gcc/arm-none-eabi/13.3.1/thumb/v8-m.main+fp/hard\libm.a(libm_a-sf_floor.o)
                              C:/Program Files (x86)/Arm GNU Toolchain arm-none-eabi/13.3 rel1/bin/../lib/gcc/arm-none-eabi/13.3.1/thumb/v8-m.main+fp/hard\libm.a(libm_a-kf_rem_pio2.o) (floorf)
C:/Program Files (x86)/Arm GNU Toolchain arm-none-eabi/13.3 rel1/bin/../lib/gcc/arm-none-eabi/13.3.1/thumb/v8-m.main+fp/hard\libgcc.a(_arm_muldf3.o)
                              C:/Program Files (x86)/Arm GNU Toolchain arm-none-eabi/13.3 rel1/bin/../lib/gcc/arm-none-eabi/13.3.1/thumb/v8-m.main+fp/hard\libm.a(libm_a-e_sqrt.o) (__aeabi_dmul)
C:/Program Files (x86)/Arm GNU Toolchain arm-none-eabi/13.3 rel1/bin/../lib/gcc/arm-none-eabi/13.3.1/thumb/v8-m.main+fp/hard\libgcc.a(_arm_muldivdf3.o)
                              C:/Program Files (x86)/Arm GNU Toolchain arm-none-eabi/13.3 rel1/bin/../lib/gcc/arm-none-eabi/13.3.1/thumb/v8-m.main+fp/hard\libm.a(libm_a-w_sqrt.o) (__aeabi_ddiv)
C:/Program Files (x86)/Arm GNU Toolchain arm-none-eabi/13.3 rel1/bin/../lib/gcc/arm-none-eabi/13.3.1/thumb/v8-m.main+fp/hard\libgcc.a(_arm_cmpdf2.o)
                              C:/Program Files (x86)/Arm GNU Toolchain arm-none-eabi/13.3 rel1/bin/../lib/gcc/arm-none-eabi/13.3.1/thumb/v8-m.main+fp/hard\libm.a(libm_a-w_sqrt.o) (__aeabi_dcmplt)
C:/Program Files (x86)/Arm GNU Toolchain arm-none-eabi/13.3 rel1/bin/../lib/gcc/arm-none-eabi/13.3.1/thumb/v8-m.main+fp/hard\libgcc.a(_arm_unorddf2.o)
                              C:/Program Files (x86)/Arm GNU Toolchain arm-none-eabi/13.3 rel1/bin/../lib/gcc/arm-none-eabi/13.3.1/thumb/v8-m.main+fp/hard\libm.a(libm_a-w_sqrt.o) (__aeabi_dcmpun)

Discarded input sections

 .text          0x00000000        0x0 C:/Program Files (x86)/Arm GNU Toolchain arm-none-eabi/13.3 rel1/bin/../lib/gcc/arm-none-eabi/13.3.1/thumb/v8-m.main+fp/hard/crti.o
 .data          0x00000000        0x0 C:/Program Files (x86)/Arm GNU Toolchain arm-none-eabi/13.3 rel1/bin/../lib/gcc/arm-none-eabi/13.3.1/thumb/v8-m.main+fp/hard/crti.o
 .bss           0x00000000        0x0 C:/Program Files (x86)/Arm GNU Toolchain arm-none-eabi/13.3 rel1/bin/../lib/gcc/arm-none-eabi/13.3.1/thumb/v8-m.main+fp/hard/crti.o
 .text          0x00000000        0x0 C:/Program Files (x86)/Arm GNU Toolchain arm-none-eabi/13.3 rel1/bin/../lib/gcc/arm-none-eabi/13.3.1/thumb/v8-m.main+fp/hard/crtbegin.o
 .data          0x00000000        0x0 C:/Program Files (x86)/Arm GNU Toolchain arm-none-eabi/13.3 rel1/bin/../lib/gcc/arm-none-eabi/13.3.1/thumb/v8-m.main+fp/hard/crtbegin.o
 .bss           0x00000000        0x0 C:/Program Files (x86)/Arm GNU Toolchain arm-none-eabi/13.3 rel1/bin/../lib/gcc/arm-none-eabi/13.3.1/thumb/v8-m.main+fp/hard/crtbegin.o
 .rodata.all_implied_fbits
                0x00000000       0x24 C:/Program Files (x86)/Arm GNU Toolchain arm-none-eabi/13.3 rel1/bin/../lib/gcc/arm-none-eabi/13.3.1/thumb/v8-m.main+fp/hard/crtbegin.o
 .data.__dso_handle
                0x00000000        0x4 C:/Program Files (x86)/Arm GNU Toolchain arm-none-eabi/13.3 rel1/bin/../lib/gcc/arm-none-eabi/13.3.1/thumb/v8-m.main+fp/hard/crtbegin.o
 .text          0x00000000       0xf8 C:/Program Files (x86)/Arm GNU Toolchain arm-none-eabi/13.3 rel1/bin/../lib/gcc/arm-none-eabi/13.3.1/thumb/v8-m.main+fp/hard/rdimon-crt0.o
 .data          0x00000000      0x118 C:/Program Files (x86)/Arm GNU Toolchain arm-none-eabi/13.3 rel1/bin/../lib/gcc/arm-none-eabi/13.3.1/thumb/v8-m.main+fp/hard/rdimon-crt0.o
 .bss           0x00000000        0x0 C:/Program Files (x86)/Arm GNU Toolchain arm-none-eabi/13.3 rel1/bin/../lib/gcc/arm-none-eabi/13.3.1/thumb/v8-m.main+fp/hard/rdimon-crt0.o
 .ARM.extab     0x00000000        0x0 C:/Program Files (x86)/Arm GNU Toolchain arm-none-eabi/13.3 rel1/bin/../lib/gcc/arm-none-eabi/13.3.1/thumb/v8-m.main+fp/hard/rdimon-crt0.o
 .ARM.exidx     0x00000000       0x10 C:/Program Files (x86)/Arm GNU Toolchain arm-none-eabi/13.3 rel1/bin/../lib/gcc/arm-none-eabi/13.3.1/thumb/v8-m.main+fp/hard/rdimon-crt0.o
 .debug_line_str
                0x00000000       0xda C:/Program Files (x86)/Arm GNU Toolchain arm-none-eabi/13.3 rel1/bin/../lib/gcc/arm-none-eabi/13.3.1/thumb/v8-m.main+fp/hard/rdimon-crt0.o
 .ARM.attributes
                0x00000000       0x24 C:/Program Files (x86)/Arm GNU Toolchain arm-none-eabi/13.3 rel1/bin/../lib/gcc/arm-none-eabi/13.3.1/thumb/v8-m.main+fp/hard/rdimon-crt0.o
 .text          0x00000000        0x0 ./src/application/user_interface/ics/r_mtr_ics.o
 .data          0x00000000        0x0 ./src/application/user_interface/ics/r_mtr_ics.o
 .bss           0x00000000        0x0 ./src/application/user_interface/ics/r_mtr_ics.o
 .bss.g_u2_conf_sw_ver
                0x00000000        0x2 ./src/application/user_interface/ics/r_mtr_ics.o
 .bss.gui_u1_active_gui
                0x00000000        0x1 ./src/application/user_interface/ics/r_mtr_ics.o
 .text          0x00000000        0x0 ./src/application/system_module/system_manager/r_system_manager_api.o
 .data          0x00000000        0x0 ./src/application/system_module/system_manager/r_system_manager_api.o
 .bss           0x00000000        0x0 ./src/application/system_module/system_manager/r_system_manager_api.o
 .text          0x00000000        0x0 ./src/application/motor_module/speed/r_motor_speed.o
 .data          0x00000000        0x0 ./src/application/motor_module/speed/r_motor_speed.o
 .bss           0x00000000        0x0 ./src/application/motor_module/speed/r_motor_speed.o
 .text.motor_speed_rate_limit_apply
                0x00000000       0x30 ./src/application/motor_module/speed/r_motor_speed.o
 .text.dynamic_motor_speed_limit
                0x00000000       0x50 ./src/application/motor_module/speed/r_motor_speed.o
 .text          0x00000000        0x0 ./src/application/motor_module/speed/r_motor_speed_api.o
 .data          0x00000000        0x0 ./src/application/motor_module/speed/r_motor_speed_api.o
 .bss           0x00000000        0x0 ./src/application/motor_module/speed/r_motor_speed_api.o
 .text.R_MOTOR_SPEED_Close
                0x00000000       0x54 ./src/application/motor_module/speed/r_motor_speed_api.o
 .text          0x00000000        0x0 ./src/application/motor_module/speed/r_motor_speed_mtpa.o
 .data          0x00000000        0x0 ./src/application/motor_module/speed/r_motor_speed_mtpa.o
 .bss           0x00000000        0x0 ./src/application/motor_module/speed/r_motor_speed_mtpa.o
 .text          0x00000000        0x0 ./src/application/motor_module/speed/r_motor_speed_pi_gain_calc.o
 .data          0x00000000        0x0 ./src/application/motor_module/speed/r_motor_speed_pi_gain_calc.o
 .bss           0x00000000        0x0 ./src/application/motor_module/speed/r_motor_speed_pi_gain_calc.o
 .text          0x00000000        0x0 ./src/application/motor_module/sensorless_vector/r_motor_sensorless_vector_action.o
 .data          0x00000000        0x0 ./src/application/motor_module/sensorless_vector/r_motor_sensorless_vector_action.o
 .bss           0x00000000        0x0 ./src/application/motor_module/sensorless_vector/r_motor_sensorless_vector_action.o
 .text          0x00000000        0x0 ./src/application/motor_module/sensorless_vector/r_motor_sensorless_vector_api.o
 .data          0x00000000        0x0 ./src/application/motor_module/sensorless_vector/r_motor_sensorless_vector_api.o
 .bss           0x00000000        0x0 ./src/application/motor_module/sensorless_vector/r_motor_sensorless_vector_api.o
 .text.R_MOTOR_SENSORLESS_VECTOR_Close
                0x00000000       0x1c ./src/application/motor_module/sensorless_vector/r_motor_sensorless_vector_api.o
 .text.R_MOTOR_SENSORLESS_VECTOR_Reset
                0x00000000        0x4 ./src/application/motor_module/sensorless_vector/r_motor_sensorless_vector_api.o
 .text.R_MOTOR_SENSORLESS_VECTOR_ErrorSet
                0x00000000        0xc ./src/application/motor_module/sensorless_vector/r_motor_sensorless_vector_api.o
 .text.R_MOTOR_SENSORLESS_VECTOR_SpeedGet
                0x00000000       0x14 ./src/application/motor_module/sensorless_vector/r_motor_sensorless_vector_api.o
 .text.R_MOTOR_SENSORLESS_VECTOR_ErrorStatusGet
                0x00000000        0x4 ./src/application/motor_module/sensorless_vector/r_motor_sensorless_vector_api.o
 .text.R_MOTOR_SENSORLESS_VECTOR_LoopModeStatusGet
                0x00000000        0x4 ./src/application/motor_module/sensorless_vector/r_motor_sensorless_vector_api.o
 .text          0x00000000        0x0 ./src/application/motor_module/sensorless_vector/r_motor_sensorless_vector_manager.o
 .data          0x00000000        0x0 ./src/application/motor_module/sensorless_vector/r_motor_sensorless_vector_manager.o
 .bss           0x00000000        0x0 ./src/application/motor_module/sensorless_vector/r_motor_sensorless_vector_manager.o
 .text          0x00000000        0x0 ./src/application/motor_module/sensorless_vector/r_motor_sensorless_vector_protection.o
 .data          0x00000000        0x0 ./src/application/motor_module/sensorless_vector/r_motor_sensorless_vector_protection.o
 .bss           0x00000000        0x0 ./src/application/motor_module/sensorless_vector/r_motor_sensorless_vector_protection.o
 .text          0x00000000        0x0 ./src/application/motor_module/sensorless_vector/r_motor_sensorless_vector_statemachine.o
 .data          0x00000000        0x0 ./src/application/motor_module/sensorless_vector/r_motor_sensorless_vector_statemachine.o
 .bss           0x00000000        0x0 ./src/application/motor_module/sensorless_vector/r_motor_sensorless_vector_statemachine.o
 .text.motor_sensorless_vector_statemachine_reset
                0x00000000        0xc ./src/application/motor_module/sensorless_vector/r_motor_sensorless_vector_statemachine.o
 .text          0x00000000        0x0 ./src/application/motor_module/general/r_motor_filter.o
 .data          0x00000000        0x0 ./src/application/motor_module/general/r_motor_filter.o
 .bss           0x00000000        0x0 ./src/application/motor_module/general/r_motor_filter.o
 .text.motor_filter_limit
                0x00000000       0x14 ./src/application/motor_module/general/r_motor_filter.o
 .text.motor_filter_upper_limitf
                0x00000000       0x10 ./src/application/motor_module/general/r_motor_filter.o
 .text.motor_filter_upper_limit
                0x00000000        0x8 ./src/application/motor_module/general/r_motor_filter.o
 .text.motor_filter_lower_limit
                0x00000000        0x8 ./src/application/motor_module/general/r_motor_filter.o
 .text.motor_filter_limit_abs
                0x00000000       0x18 ./src/application/motor_module/general/r_motor_filter.o
 .text.motor_filter_second_order_lpff_init
                0x00000000       0x18 ./src/application/motor_module/general/r_motor_filter.o
 .text.motor_filter_second_order_lpff_reset
                0x00000000        0xc ./src/application/motor_module/general/r_motor_filter.o
 .text.motor_filter_second_order_lpff_gain_calc
                0x00000000       0x6c ./src/application/motor_module/general/r_motor_filter.o
 .text.motor_filter_second_order_lpff
                0x00000000       0x50 ./src/application/motor_module/general/r_motor_filter.o
 .text          0x00000000        0x0 ./src/application/motor_module/general/r_motor_pi_control.o
 .data          0x00000000        0x0 ./src/application/motor_module/general/r_motor_pi_control.o
 .bss           0x00000000        0x0 ./src/application/motor_module/general/r_motor_pi_control.o
 .text.motor_pi_ctrl_kp_set
                0x00000000        0x8 ./src/application/motor_module/general/r_motor_pi_control.o
 .text.motor_pi_ctrl_ki_set
                0x00000000        0x8 ./src/application/motor_module/general/r_motor_pi_control.o
 .text.motor_pi_ctrl_integrator_set
                0x00000000        0x8 ./src/application/motor_module/general/r_motor_pi_control.o
 .text          0x00000000        0x0 ./src/application/motor_module/driver/r_motor_driver.o
 .data          0x00000000        0x0 ./src/application/motor_module/driver/r_motor_driver.o
 .bss           0x00000000        0x0 ./src/application/motor_module/driver/r_motor_driver.o
 .text.R_MOTOR_DRIVER_AdcConvert
                0x00000000       0x94 ./src/application/motor_module/driver/r_motor_driver.o
 .text.R_MOTOR_DRIVER_Close
                0x00000000        0x4 ./src/application/motor_module/driver/r_motor_driver.o
 .text          0x00000000        0x0 ./src/application/motor_module/driver/r_motor_driver_fsp.o
 .data          0x00000000        0x0 ./src/application/motor_module/driver/r_motor_driver_fsp.o
 .bss           0x00000000        0x0 ./src/application/motor_module/driver/r_motor_driver_fsp.o
 .text.R_Config_MC_PWM_PFC_DUTY_StopTimerCtrl
                0x00000000       0x24 ./src/application/motor_module/driver/r_motor_driver_fsp.o
 .text.R_Config_MC_DIO_BLDC_STOP
                0x00000000       0x10 ./src/application/motor_module/driver/r_motor_driver_fsp.o
 .text.R_Config_MC_DIO_BLDC_BRAKE
                0x00000000       0x10 ./src/application/motor_module/driver/r_motor_driver_fsp.o
 .text.R_Config_SC_MC_DIO_BLDC_FAULT
                0x00000000       0x20 ./src/application/motor_module/driver/r_motor_driver_fsp.o
 .text          0x00000000        0x0 ./src/application/motor_module/current/r_motor_current.o
 .data          0x00000000        0x0 ./src/application/motor_module/current/r_motor_current.o
 .bss           0x00000000        0x0 ./src/application/motor_module/current/r_motor_current.o
 .text          0x00000000        0x0 ./src/application/motor_module/current/r_motor_current_api.o
 .data          0x00000000        0x0 ./src/application/motor_module/current/r_motor_current_api.o
 .bss           0x00000000        0x0 ./src/application/motor_module/current/r_motor_current_api.o
 .text.R_MOTOR_CURRENT_Close
                0x00000000        0xc ./src/application/motor_module/current/r_motor_current_api.o
 .text          0x00000000        0x0 ./src/application/motor_module/current/r_motor_current_modulation.o
 .data          0x00000000        0x0 ./src/application/motor_module/current/r_motor_current_modulation.o
 .bss           0x00000000        0x0 ./src/application/motor_module/current/r_motor_current_modulation.o
 .text.motor_current_mod_reset
                0x00000000        0x4 ./src/application/motor_module/current/r_motor_current_modulation.o
 .text.motor_current_mod_voltage_multiplier_get
                0x00000000       0x28 ./src/application/motor_module/current/r_motor_current_modulation.o
 .text          0x00000000        0x0 ./src/application/motor_module/current/r_motor_current_pi_gain_calc.o
 .data          0x00000000        0x0 ./src/application/motor_module/current/r_motor_current_pi_gain_calc.o
 .bss           0x00000000        0x0 ./src/application/motor_module/current/r_motor_current_pi_gain_calc.o
 .text          0x00000000        0x0 ./src/application/main/mtr_main.o
 .data          0x00000000        0x0 ./src/application/main/mtr_main.o
 .bss           0x00000000        0x0 ./src/application/main/mtr_main.o
 .text          0x00000000        0x0 ./src/hal_entry.o
 .data          0x00000000        0x0 ./src/hal_entry.o
 .bss           0x00000000        0x0 ./src/hal_entry.o
 .text          0x00000000        0x0 ./ra_gen/common_data.o
 .data          0x00000000        0x0 ./ra_gen/common_data.o
 .bss           0x00000000        0x0 ./ra_gen/common_data.o
 .text.g_common_init
                0x00000000        0x4 ./ra_gen/common_data.o
 .text          0x00000000        0x0 ./ra_gen/hal_data.o
 .data          0x00000000        0x0 ./ra_gen/hal_data.o
 .bss           0x00000000        0x0 ./ra_gen/hal_data.o
 .text.g_hal_init
                0x00000000        0x4 ./ra_gen/hal_data.o
 .rodata.g_adc0
                0x00000000       0x10 ./ra_gen/hal_data.o
 .rodata.g_three_phase0
                0x00000000        0xc ./ra_gen/hal_data.o
 .rodata.g_agt0
                0x00000000        0xc ./ra_gen/hal_data.o
 .rodata.g_timer_gpt1
                0x00000000        0xc ./ra_gen/hal_data.o
 .rodata.g_agt1
                0x00000000        0xc ./ra_gen/hal_data.o
 .text          0x00000000        0x0 ./ra_gen/main.o
 .data          0x00000000        0x0 ./ra_gen/main.o
 .bss           0x00000000        0x0 ./ra_gen/main.o
 .text          0x00000000        0x0 ./ra_gen/pin_data.o
 .data          0x00000000        0x0 ./ra_gen/pin_data.o
 .bss           0x00000000        0x0 ./ra_gen/pin_data.o
 .text          0x00000000        0x0 ./ra_gen/vector_data.o
 .data          0x00000000        0x0 ./ra_gen/vector_data.o
 .bss           0x00000000        0x0 ./ra_gen/vector_data.o
 .text          0x00000000        0x0 ./ra/fsp/src/r_poeg/r_poeg.o
 .data          0x00000000        0x0 ./ra/fsp/src/r_poeg/r_poeg.o
 .bss           0x00000000        0x0 ./ra/fsp/src/r_poeg/r_poeg.o
 .text          0x00000000        0x0 ./ra/fsp/src/r_ioport/r_ioport.o
 .data          0x00000000        0x0 ./ra/fsp/src/r_ioport/r_ioport.o
 .bss           0x00000000        0x0 ./ra/fsp/src/r_ioport/r_ioport.o
 .text          0x00000000        0x0 ./ra/fsp/src/r_gpt_three_phase/r_gpt_three_phase.o
 .data          0x00000000        0x0 ./ra/fsp/src/r_gpt_three_phase/r_gpt_three_phase.o
 .bss           0x00000000        0x0 ./ra/fsp/src/r_gpt_three_phase/r_gpt_three_phase.o
 .text.R_GPT_THREE_PHASE_CallbackSet
                0x00000000       0x14 ./ra/fsp/src/r_gpt_three_phase/r_gpt_three_phase.o
 .text.R_GPT_THREE_PHASE_Close
                0x00000000       0x28 ./ra/fsp/src/r_gpt_three_phase/r_gpt_three_phase.o
 .rodata.g_gpt_three_phase_on_gpt_three_phase
                0x00000000       0x1c ./ra/fsp/src/r_gpt_three_phase/r_gpt_three_phase.o
 .text          0x00000000        0x0 ./ra/fsp/src/r_gpt/r_gpt.o
 .data          0x00000000        0x0 ./ra/fsp/src/r_gpt/r_gpt.o
 .bss           0x00000000        0x0 ./ra/fsp/src/r_gpt/r_gpt.o
 .text.r_gpt_ccmp_common_isr
                0x00000000       0xd8 ./ra/fsp/src/r_gpt/r_gpt.o
 .text.R_GPT_CounterSet
                0x00000000        0xc ./ra/fsp/src/r_gpt/r_gpt.o
 .text.R_GPT_AdcTriggerSet
                0x00000000       0x10 ./ra/fsp/src/r_gpt/r_gpt.o
 .text.R_GPT_PwmOutputDelaySet
                0x00000000       0x70 ./ra/fsp/src/r_gpt/r_gpt.o
 .text.R_GPT_PwmOutputDelayInitialize
                0x00000000       0x80 ./ra/fsp/src/r_gpt/r_gpt.o
 .text.gpt_counter_underflow_isr
                0x00000000       0x34 ./ra/fsp/src/r_gpt/r_gpt.o
 .text.gpt_capture_compare_a_isr
                0x00000000        0x8 ./ra/fsp/src/r_gpt/r_gpt.o
 .text.gpt_capture_compare_b_isr
                0x00000000        0x8 ./ra/fsp/src/r_gpt/r_gpt.o
 .text          0x00000000        0x0 ./ra/fsp/src/r_agt/r_agt.o
 .data          0x00000000        0x0 ./ra/fsp/src/r_agt/r_agt.o
 .bss           0x00000000        0x0 ./ra/fsp/src/r_agt/r_agt.o
 .text.R_AGT_Enable
                0x00000000       0x24 ./ra/fsp/src/r_agt/r_agt.o
 .text.R_AGT_Disable
                0x00000000       0x1c ./ra/fsp/src/r_agt/r_agt.o
 .text.R_AGT_DutyCycleSet
                0x00000000        0x4 ./ra/fsp/src/r_agt/r_agt.o
 .text.R_AGT_CompareMatchSet
                0x00000000        0x4 ./ra/fsp/src/r_agt/r_agt.o
 .text.R_AGT_StatusGet
                0x00000000       0x44 ./ra/fsp/src/r_agt/r_agt.o
 .text.R_AGT_CallbackSet
                0x00000000       0x10 ./ra/fsp/src/r_agt/r_agt.o
 .text.R_AGT_Close
                0x00000000       0x7c ./ra/fsp/src/r_agt/r_agt.o
 .text.R_AGT_PeriodSet
                0x00000000       0x54 ./ra/fsp/src/r_agt/r_agt.o
 .text.R_AGT_InfoGet
                0x00000000       0xfc ./ra/fsp/src/r_agt/r_agt.o
 .rodata.g_timer_on_agt
                0x00000000       0x34 ./ra/fsp/src/r_agt/r_agt.o
 .text          0x00000000        0x0 ./ra/fsp/src/r_adc_b/r_adc_b.o
 .data          0x00000000        0x0 ./ra/fsp/src/r_adc_b/r_adc_b.o
 .bss           0x00000000        0x0 ./ra/fsp/src/r_adc_b/r_adc_b.o
 .text.R_ADC_B_CallbackSet
                0x00000000       0x10 ./ra/fsp/src/r_adc_b/r_adc_b.o
 .text.R_ADC_B_ScanGroupStart
                0x00000000       0x34 ./ra/fsp/src/r_adc_b/r_adc_b.o
 .text.R_ADC_B_InfoGet
                0x00000000       0x3c ./ra/fsp/src/r_adc_b/r_adc_b.o
 .text.R_ADC_B_OffsetSet
                0x00000000        0x4 ./ra/fsp/src/r_adc_b/r_adc_b.o
 .text.R_ADC_B_Close
                0x00000000       0xfc ./ra/fsp/src/r_adc_b/r_adc_b.o
 .text.R_ADC_B_Read32
                0x00000000       0x24 ./ra/fsp/src/r_adc_b/r_adc_b.o
 .text.R_ADC_B_ScanStop
                0x00000000       0x3c ./ra/fsp/src/r_adc_b/r_adc_b.o
 .text.R_ADC_B_FifoRead
                0x00000000       0x74 ./ra/fsp/src/r_adc_b/r_adc_b.o
 .text.adc_b_limclpi_isr
                0x00000000       0x54 ./ra/fsp/src/r_adc_b/r_adc_b.o
 .text.adc_b_err0_isr
                0x00000000       0x3c ./ra/fsp/src/r_adc_b/r_adc_b.o
 .text.adc_b_err1_isr
                0x00000000       0x3c ./ra/fsp/src/r_adc_b/r_adc_b.o
 .text.adc_b_resovf0_isr
                0x00000000       0x50 ./ra/fsp/src/r_adc_b/r_adc_b.o
 .text.adc_b_resovf1_isr
                0x00000000       0x50 ./ra/fsp/src/r_adc_b/r_adc_b.o
 .text.adc_b_adi2_isr
                0x00000000       0x3c ./ra/fsp/src/r_adc_b/r_adc_b.o
 .text.adc_b_adi3_isr
                0x00000000       0x3c ./ra/fsp/src/r_adc_b/r_adc_b.o
 .text.adc_b_adi4_isr
                0x00000000       0x3c ./ra/fsp/src/r_adc_b/r_adc_b.o
 .text.adc_b_adi5678_isr
                0x00000000       0x58 ./ra/fsp/src/r_adc_b/r_adc_b.o
 .text.adc_b_fifoovf_isr
                0x00000000       0x50 ./ra/fsp/src/r_adc_b/r_adc_b.o
 .text.adc_b_fiforeq0_isr
                0x00000000       0x30 ./ra/fsp/src/r_adc_b/r_adc_b.o
 .text.adc_b_fiforeq1_isr
                0x00000000       0x30 ./ra/fsp/src/r_adc_b/r_adc_b.o
 .text.adc_b_fiforeq2_isr
                0x00000000       0x30 ./ra/fsp/src/r_adc_b/r_adc_b.o
 .text.adc_b_fiforeq3_isr
                0x00000000       0x30 ./ra/fsp/src/r_adc_b/r_adc_b.o
 .text.adc_b_fiforeq4_isr
                0x00000000       0x30 ./ra/fsp/src/r_adc_b/r_adc_b.o
 .text.adc_b_fiforeq5678_isr
                0x00000000       0x40 ./ra/fsp/src/r_adc_b/r_adc_b.o
 .rodata.g_adc_on_adc_b
                0x00000000       0x34 ./ra/fsp/src/r_adc_b/r_adc_b.o
 .text          0x00000000        0x0 ./ra/fsp/src/bsp/mcu/all/bsp_clocks.o
 .data          0x00000000        0x0 ./ra/fsp/src/bsp/mcu/all/bsp_clocks.o
 .bss           0x00000000        0x0 ./ra/fsp/src/bsp/mcu/all/bsp_clocks.o
 .text.bsp_prv_operating_mode_set
                0x00000000       0x60 ./ra/fsp/src/bsp/mcu/all/bsp_clocks.o
 .text.bsp_prv_prepare_pll
                0x00000000       0x14 ./ra/fsp/src/bsp/mcu/all/bsp_clocks.o
 .text.prv_clock_dividers_set
                0x00000000        0xc ./ra/fsp/src/bsp/mcu/all/bsp_clocks.o
 .text.bsp_prv_clock_set
                0x00000000       0x78 ./ra/fsp/src/bsp/mcu/all/bsp_clocks.o
 .text.R_BSP_OctaclkUpdate
                0x00000000        0x4 ./ra/fsp/src/bsp/mcu/all/bsp_clocks.o
 .text.R_BSP_SourceClockHzGet
                0x00000000        0xc ./ra/fsp/src/bsp/mcu/all/bsp_clocks.o
 .text          0x00000000        0x0 ./ra/fsp/src/bsp/mcu/all/bsp_common.o
 .data          0x00000000        0x0 ./ra/fsp/src/bsp/mcu/all/bsp_common.o
 .bss           0x00000000        0x0 ./ra/fsp/src/bsp/mcu/all/bsp_common.o
 .text.R_FSP_VersionGet
                0x00000000       0x10 ./ra/fsp/src/bsp/mcu/all/bsp_common.o
 .text.__assert_func
                0x00000000        0x4 ./ra/fsp/src/bsp/mcu/all/bsp_common.o
 .text          0x00000000        0x0 ./ra/fsp/src/bsp/mcu/all/bsp_delay.o
 .data          0x00000000        0x0 ./ra/fsp/src/bsp/mcu/all/bsp_delay.o
 .bss           0x00000000        0x0 ./ra/fsp/src/bsp/mcu/all/bsp_delay.o
 .text          0x00000000        0x0 ./ra/fsp/src/bsp/mcu/all/bsp_group_irq.o
 .data          0x00000000        0x0 ./ra/fsp/src/bsp/mcu/all/bsp_group_irq.o
 .bss           0x00000000        0x0 ./ra/fsp/src/bsp/mcu/all/bsp_group_irq.o
 .text.R_BSP_GroupIrqWrite
                0x00000000       0x10 ./ra/fsp/src/bsp/mcu/all/bsp_group_irq.o
 .text          0x00000000        0x0 ./ra/fsp/src/bsp/mcu/all/bsp_guard.o
 .data          0x00000000        0x0 ./ra/fsp/src/bsp/mcu/all/bsp_guard.o
 .bss           0x00000000        0x0 ./ra/fsp/src/bsp/mcu/all/bsp_guard.o
 .debug_info    0x00000000       0x79 ./ra/fsp/src/bsp/mcu/all/bsp_guard.o
 .debug_abbrev  0x00000000       0x26 ./ra/fsp/src/bsp/mcu/all/bsp_guard.o
 .debug_aranges
                0x00000000       0x18 ./ra/fsp/src/bsp/mcu/all/bsp_guard.o
 .debug_line    0x00000000       0x46 ./ra/fsp/src/bsp/mcu/all/bsp_guard.o
 .debug_str     0x00000000      0x1ed ./ra/fsp/src/bsp/mcu/all/bsp_guard.o
 .comment       0x00000000       0x46 ./ra/fsp/src/bsp/mcu/all/bsp_guard.o
 .ARM.attributes
                0x00000000       0x3a ./ra/fsp/src/bsp/mcu/all/bsp_guard.o
 .text          0x00000000        0x0 ./ra/fsp/src/bsp/mcu/all/bsp_io.o
 .data          0x00000000        0x0 ./ra/fsp/src/bsp/mcu/all/bsp_io.o
 .bss           0x00000000        0x0 ./ra/fsp/src/bsp/mcu/all/bsp_io.o
 .text          0x00000000        0x0 ./ra/fsp/src/bsp/mcu/all/bsp_irq.o
 .data          0x00000000        0x0 ./ra/fsp/src/bsp/mcu/all/bsp_irq.o
 .bss           0x00000000        0x0 ./ra/fsp/src/bsp/mcu/all/bsp_irq.o
 .rodata.g_interrupt_event_link_select
                0x00000000       0xc0 ./ra/fsp/src/bsp/mcu/all/bsp_irq.o
 .text          0x00000000        0x0 ./ra/fsp/src/bsp/mcu/all/bsp_macl.o
 .data          0x00000000        0x0 ./ra/fsp/src/bsp/mcu/all/bsp_macl.o
 .bss           0x00000000        0x0 ./ra/fsp/src/bsp/mcu/all/bsp_macl.o
 .debug_info    0x00000000       0x79 ./ra/fsp/src/bsp/mcu/all/bsp_macl.o
 .debug_abbrev  0x00000000       0x26 ./ra/fsp/src/bsp/mcu/all/bsp_macl.o
 .debug_aranges
                0x00000000       0x18 ./ra/fsp/src/bsp/mcu/all/bsp_macl.o
 .debug_line    0x00000000       0x45 ./ra/fsp/src/bsp/mcu/all/bsp_macl.o
 .debug_str     0x00000000      0x1ec ./ra/fsp/src/bsp/mcu/all/bsp_macl.o
 .comment       0x00000000       0x46 ./ra/fsp/src/bsp/mcu/all/bsp_macl.o
 .ARM.attributes
                0x00000000       0x3a ./ra/fsp/src/bsp/mcu/all/bsp_macl.o
 .text          0x00000000        0x0 ./ra/fsp/src/bsp/mcu/all/bsp_register_protection.o
 .data          0x00000000        0x0 ./ra/fsp/src/bsp/mcu/all/bsp_register_protection.o
 .bss           0x00000000        0x0 ./ra/fsp/src/bsp/mcu/all/bsp_register_protection.o
 .text          0x00000000        0x0 ./ra/fsp/src/bsp/mcu/all/bsp_rom_registers.o
 .data          0x00000000        0x0 ./ra/fsp/src/bsp/mcu/all/bsp_rom_registers.o
 .bss           0x00000000        0x0 ./ra/fsp/src/bsp/mcu/all/bsp_rom_registers.o
 .text          0x00000000        0x0 ./ra/fsp/src/bsp/mcu/all/bsp_sbrk.o
 .data          0x00000000        0x0 ./ra/fsp/src/bsp/mcu/all/bsp_sbrk.o
 .bss           0x00000000        0x0 ./ra/fsp/src/bsp/mcu/all/bsp_sbrk.o
 .text._sbrk    0x00000000       0x40 ./ra/fsp/src/bsp/mcu/all/bsp_sbrk.o
 .bss.current_heap_end.0
                0x00000000        0x4 ./ra/fsp/src/bsp/mcu/all/bsp_sbrk.o
 .debug_info    0x00000000      0x14b ./ra/fsp/src/bsp/mcu/all/bsp_sbrk.o
 .debug_abbrev  0x00000000       0xcc ./ra/fsp/src/bsp/mcu/all/bsp_sbrk.o
 .debug_loc     0x00000000      0x10b ./ra/fsp/src/bsp/mcu/all/bsp_sbrk.o
 .debug_aranges
                0x00000000       0x20 ./ra/fsp/src/bsp/mcu/all/bsp_sbrk.o
 .debug_ranges  0x00000000       0x10 ./ra/fsp/src/bsp/mcu/all/bsp_sbrk.o
 .debug_line    0x00000000      0x1bc ./ra/fsp/src/bsp/mcu/all/bsp_sbrk.o
 .debug_str     0x00000000      0x277 ./ra/fsp/src/bsp/mcu/all/bsp_sbrk.o
 .comment       0x00000000       0x46 ./ra/fsp/src/bsp/mcu/all/bsp_sbrk.o
 .debug_frame   0x00000000       0x28 ./ra/fsp/src/bsp/mcu/all/bsp_sbrk.o
 .ARM.attributes
                0x00000000       0x3a ./ra/fsp/src/bsp/mcu/all/bsp_sbrk.o
 .text          0x00000000        0x0 ./ra/fsp/src/bsp/mcu/all/bsp_sdram.o
 .data          0x00000000        0x0 ./ra/fsp/src/bsp/mcu/all/bsp_sdram.o
 .bss           0x00000000        0x0 ./ra/fsp/src/bsp/mcu/all/bsp_sdram.o
 .debug_info    0x00000000       0x79 ./ra/fsp/src/bsp/mcu/all/bsp_sdram.o
 .debug_abbrev  0x00000000       0x26 ./ra/fsp/src/bsp/mcu/all/bsp_sdram.o
 .debug_aranges
                0x00000000       0x18 ./ra/fsp/src/bsp/mcu/all/bsp_sdram.o
 .debug_line    0x00000000       0x46 ./ra/fsp/src/bsp/mcu/all/bsp_sdram.o
 .debug_str     0x00000000      0x1ed ./ra/fsp/src/bsp/mcu/all/bsp_sdram.o
 .comment       0x00000000       0x46 ./ra/fsp/src/bsp/mcu/all/bsp_sdram.o
 .ARM.attributes
                0x00000000       0x3a ./ra/fsp/src/bsp/mcu/all/bsp_sdram.o
 .text          0x00000000        0x0 ./ra/fsp/src/bsp/mcu/all/bsp_security.o
 .data          0x00000000        0x0 ./ra/fsp/src/bsp/mcu/all/bsp_security.o
 .bss           0x00000000        0x0 ./ra/fsp/src/bsp/mcu/all/bsp_security.o
 .rodata.gp_start_of_nonsecure_callable_ram
                0x00000000        0x4 ./ra/fsp/src/bsp/mcu/all/bsp_security.o
 .rodata.gp_start_of_nonsecure_ram
                0x00000000        0x4 ./ra/fsp/src/bsp/mcu/all/bsp_security.o
 .rodata.gp_start_of_nonsecure_data_flash
                0x00000000        0x4 ./ra/fsp/src/bsp/mcu/all/bsp_security.o
 .rodata.gp_start_of_nonsecure_callable_flash
                0x00000000        0x4 ./ra/fsp/src/bsp/mcu/all/bsp_security.o
 .rodata.gp_start_of_nonsecure_flash
                0x00000000        0x4 ./ra/fsp/src/bsp/mcu/all/bsp_security.o
 .debug_info    0x00000000      0x919 ./ra/fsp/src/bsp/mcu/all/bsp_security.o
 .debug_abbrev  0x00000000       0x92 ./ra/fsp/src/bsp/mcu/all/bsp_security.o
 .debug_aranges
                0x00000000       0x18 ./ra/fsp/src/bsp/mcu/all/bsp_security.o
 .debug_line    0x00000000      0x1a7 ./ra/fsp/src/bsp/mcu/all/bsp_security.o
 .debug_str     0x00000000     0x1ee1 ./ra/fsp/src/bsp/mcu/all/bsp_security.o
 .comment       0x00000000       0x46 ./ra/fsp/src/bsp/mcu/all/bsp_security.o
 .ARM.attributes
                0x00000000       0x3a ./ra/fsp/src/bsp/mcu/all/bsp_security.o
 .text          0x00000000        0x0 ./ra/fsp/src/bsp/cmsis/Device/RENESAS/Source/startup.o
 .data          0x00000000        0x0 ./ra/fsp/src/bsp/cmsis/Device/RENESAS/Source/startup.o
 .bss           0x00000000        0x0 ./ra/fsp/src/bsp/cmsis/Device/RENESAS/Source/startup.o
 .text          0x00000000        0x0 ./ra/fsp/src/bsp/cmsis/Device/RENESAS/Source/system.o
 .data          0x00000000        0x0 ./ra/fsp/src/bsp/cmsis/Device/RENESAS/Source/system.o
 .bss           0x00000000        0x0 ./ra/fsp/src/bsp/cmsis/Device/RENESAS/Source/system.o
 .text.R_BSP_WarmStart
                0x00000000        0x4 ./ra/fsp/src/bsp/cmsis/Device/RENESAS/Source/system.o
 .text          0x00000000        0x0 C:/Users/a5143778/Documents/MC_Greece/MC_Greece/RA6T2_MCIHV1_IPM_LESS_FOC_WHOLE_PFC_E2S_V100/src/application/user_interface/ics/ICS2_RA6T2.o(ICS2_RA6T2.o)
 .data          0x00000000        0x0 C:/Users/a5143778/Documents/MC_Greece/MC_Greece/RA6T2_MCIHV1_IPM_LESS_FOC_WHOLE_PFC_E2S_V100/src/application/user_interface/ics/ICS2_RA6T2.o(ICS2_RA6T2.o)
 .bss           0x00000000        0x0 C:/Users/a5143778/Documents/MC_Greece/MC_Greece/RA6T2_MCIHV1_IPM_LESS_FOC_WHOLE_PFC_E2S_V100/src/application/user_interface/ics/ICS2_RA6T2.o(ICS2_RA6T2.o)
 .text.ics2_version
                0x00000000        0x8 C:/Users/a5143778/Documents/MC_Greece/MC_Greece/RA6T2_MCIHV1_IPM_LESS_FOC_WHOLE_PFC_E2S_V100/src/application/user_interface/ics/ICS2_RA6T2.o(ICS2_RA6T2.o)
 .text.ics_int_sci_eri
                0x00000000        0x4 C:/Users/a5143778/Documents/MC_Greece/MC_Greece/RA6T2_MCIHV1_IPM_LESS_FOC_WHOLE_PFC_E2S_V100/src/application/user_interface/ics/ICS2_RA6T2.o(ICS2_RA6T2.o)
 .text          0x00000000        0x0 C:\Users\a5143778\Documents\MC_Greece\MC_Greece\RA6T2_MCIHV1_IPM_LESS_FOC_WHOLE_PFC_E2S_V100\src\application\motor_module\current\libr_motor_current_bemf_observer.a(r_motor_current_bemf_observer.o)
 .data          0x00000000        0x0 C:\Users\a5143778\Documents\MC_Greece\MC_Greece\RA6T2_MCIHV1_IPM_LESS_FOC_WHOLE_PFC_E2S_V100\src\application\motor_module\current\libr_motor_current_bemf_observer.a(r_motor_current_bemf_observer.o)
 .bss           0x00000000        0x0 C:\Users\a5143778\Documents\MC_Greece\MC_Greece\RA6T2_MCIHV1_IPM_LESS_FOC_WHOLE_PFC_E2S_V100\src\application\motor_module\current\libr_motor_current_bemf_observer.a(r_motor_current_bemf_observer.o)
 .text.motor_current_bemf_observer_amp_calc
                0x00000000       0x20 C:\Users\a5143778\Documents\MC_Greece\MC_Greece\RA6T2_MCIHV1_IPM_LESS_FOC_WHOLE_PFC_E2S_V100\src\application\motor_module\current\libr_motor_current_bemf_observer.a(r_motor_current_bemf_observer.o)
 .text.motor_current_bemf_observer_gain_set
                0x00000000       0x18 C:\Users\a5143778\Documents\MC_Greece\MC_Greece\RA6T2_MCIHV1_IPM_LESS_FOC_WHOLE_PFC_E2S_V100\src\application\motor_module\current\libr_motor_current_bemf_observer.a(r_motor_current_bemf_observer.o)
 .text.motor_current_angle_speed_gain_set
                0x00000000        0xc C:\Users\a5143778\Documents\MC_Greece\MC_Greece\RA6T2_MCIHV1_IPM_LESS_FOC_WHOLE_PFC_E2S_V100\src\application\motor_module\current\libr_motor_current_bemf_observer.a(r_motor_current_bemf_observer.o)
 .text          0x00000000        0x0 C:\Users\a5143778\Documents\MC_Greece\MC_Greece\RA6T2_MCIHV1_IPM_LESS_FOC_WHOLE_PFC_E2S_V100\src\application\motor_module\current\libr_motor_current_lowspd_sensorless.a(r_motor_current_lowspd_sensorless.o)
 .data          0x00000000        0x0 C:\Users\a5143778\Documents\MC_Greece\MC_Greece\RA6T2_MCIHV1_IPM_LESS_FOC_WHOLE_PFC_E2S_V100\src\application\motor_module\current\libr_motor_current_lowspd_sensorless.a(r_motor_current_lowspd_sensorless.o)
 .bss           0x00000000        0x0 C:\Users\a5143778\Documents\MC_Greece\MC_Greece\RA6T2_MCIHV1_IPM_LESS_FOC_WHOLE_PFC_E2S_V100\src\application\motor_module\current\libr_motor_current_lowspd_sensorless.a(r_motor_current_lowspd_sensorless.o)
 .text          0x00000000        0x0 C:\Users\a5143778\Documents\MC_Greece\MC_Greece\RA6T2_MCIHV1_IPM_LESS_FOC_WHOLE_PFC_E2S_V100\src\application\motor_module\current\libr_motor_current_stall_detection.a(r_motor_current_stall_detection.o)
 .data          0x00000000        0x0 C:\Users\a5143778\Documents\MC_Greece\MC_Greece\RA6T2_MCIHV1_IPM_LESS_FOC_WHOLE_PFC_E2S_V100\src\application\motor_module\current\libr_motor_current_stall_detection.a(r_motor_current_stall_detection.o)
 .bss           0x00000000        0x0 C:\Users\a5143778\Documents\MC_Greece\MC_Greece\RA6T2_MCIHV1_IPM_LESS_FOC_WHOLE_PFC_E2S_V100\src\application\motor_module\current\libr_motor_current_stall_detection.a(r_motor_current_stall_detection.o)
 .text          0x00000000        0x0 C:\Users\a5143778\Documents\MC_Greece\MC_Greece\RA6T2_MCIHV1_IPM_LESS_FOC_WHOLE_PFC_E2S_V100\src\application\motor_module\current\libr_motor_current_trq_vib_comp.a(r_motor_current_trq_vib_comp.o)
 .data          0x00000000        0x0 C:\Users\a5143778\Documents\MC_Greece\MC_Greece\RA6T2_MCIHV1_IPM_LESS_FOC_WHOLE_PFC_E2S_V100\src\application\motor_module\current\libr_motor_current_trq_vib_comp.a(r_motor_current_trq_vib_comp.o)
 .bss           0x00000000        0x0 C:\Users\a5143778\Documents\MC_Greece\MC_Greece\RA6T2_MCIHV1_IPM_LESS_FOC_WHOLE_PFC_E2S_V100\src\application\motor_module\current\libr_motor_current_trq_vib_comp.a(r_motor_current_trq_vib_comp.o)
 .text.motor_current_trq_vibration_compensation_get_m_angle
                0x00000000       0x90 C:\Users\a5143778\Documents\MC_Greece\MC_Greece\RA6T2_MCIHV1_IPM_LESS_FOC_WHOLE_PFC_E2S_V100\src\application\motor_module\current\libr_motor_current_trq_vib_comp.a(r_motor_current_trq_vib_comp.o)
 .text          0x00000000        0x0 C:\Users\a5143778\Documents\MC_Greece\MC_Greece\RA6T2_MCIHV1_IPM_LESS_FOC_WHOLE_PFC_E2S_V100\src\application\motor_module\current\libr_motor_current_volt_err_comp.a(r_motor_current_volt_err_comp.o)
 .data          0x00000000        0x0 C:\Users\a5143778\Documents\MC_Greece\MC_Greece\RA6T2_MCIHV1_IPM_LESS_FOC_WHOLE_PFC_E2S_V100\src\application\motor_module\current\libr_motor_current_volt_err_comp.a(r_motor_current_volt_err_comp.o)
 .bss           0x00000000        0x0 C:\Users\a5143778\Documents\MC_Greece\MC_Greece\RA6T2_MCIHV1_IPM_LESS_FOC_WHOLE_PFC_E2S_V100\src\application\motor_module\current\libr_motor_current_volt_err_comp.a(r_motor_current_volt_err_comp.o)
 .text.motor_current_volt_err_comp_reset
                0x00000000        0xc C:\Users\a5143778\Documents\MC_Greece\MC_Greece\RA6T2_MCIHV1_IPM_LESS_FOC_WHOLE_PFC_E2S_V100\src\application\motor_module\current\libr_motor_current_volt_err_comp.a(r_motor_current_volt_err_comp.o)
 .text          0x00000000        0x0 C:\Users\a5143778\Documents\MC_Greece\MC_Greece\RA6T2_MCIHV1_IPM_LESS_FOC_WHOLE_PFC_E2S_V100\src\application\motor_module\sensorless_vector\libr_motor_sensorless_vector_flyingstart.a(r_motor_sensorless_vector_flyingstart.o)
 .data          0x00000000        0x0 C:\Users\a5143778\Documents\MC_Greece\MC_Greece\RA6T2_MCIHV1_IPM_LESS_FOC_WHOLE_PFC_E2S_V100\src\application\motor_module\sensorless_vector\libr_motor_sensorless_vector_flyingstart.a(r_motor_sensorless_vector_flyingstart.o)
 .bss           0x00000000        0x0 C:\Users\a5143778\Documents\MC_Greece\MC_Greece\RA6T2_MCIHV1_IPM_LESS_FOC_WHOLE_PFC_E2S_V100\src\application\motor_module\sensorless_vector\libr_motor_sensorless_vector_flyingstart.a(r_motor_sensorless_vector_flyingstart.o)
 .text          0x00000000        0x0 C:\Users\a5143778\Documents\MC_Greece\MC_Greece\RA6T2_MCIHV1_IPM_LESS_FOC_WHOLE_PFC_E2S_V100\src\application\motor_module\speed\libr_motor_speed_extobserver.a(r_motor_speed_extobserver.o)
 .data          0x00000000        0x0 C:\Users\a5143778\Documents\MC_Greece\MC_Greece\RA6T2_MCIHV1_IPM_LESS_FOC_WHOLE_PFC_E2S_V100\src\application\motor_module\speed\libr_motor_speed_extobserver.a(r_motor_speed_extobserver.o)
 .bss           0x00000000        0x0 C:\Users\a5143778\Documents\MC_Greece\MC_Greece\RA6T2_MCIHV1_IPM_LESS_FOC_WHOLE_PFC_E2S_V100\src\application\motor_module\speed\libr_motor_speed_extobserver.a(r_motor_speed_extobserver.o)
 .text.motor_speed_extobserver_init_speed_set
                0x00000000        0x8 C:\Users\a5143778\Documents\MC_Greece\MC_Greece\RA6T2_MCIHV1_IPM_LESS_FOC_WHOLE_PFC_E2S_V100\src\application\motor_module\speed\libr_motor_speed_extobserver.a(r_motor_speed_extobserver.o)
 .text          0x00000000        0x0 C:\Users\a5143778\Documents\MC_Greece\MC_Greece\RA6T2_MCIHV1_IPM_LESS_FOC_WHOLE_PFC_E2S_V100\src\application\motor_module\speed\libr_motor_speed_fluxwkn.a(r_motor_speed_fluxwkn.o)
 .data          0x00000000        0x0 C:\Users\a5143778\Documents\MC_Greece\MC_Greece\RA6T2_MCIHV1_IPM_LESS_FOC_WHOLE_PFC_E2S_V100\src\application\motor_module\speed\libr_motor_speed_fluxwkn.a(r_motor_speed_fluxwkn.o)
 .bss           0x00000000        0x0 C:\Users\a5143778\Documents\MC_Greece\MC_Greece\RA6T2_MCIHV1_IPM_LESS_FOC_WHOLE_PFC_E2S_V100\src\application\motor_module\speed\libr_motor_speed_fluxwkn.a(r_motor_speed_fluxwkn.o)
 .text.motor_speed_flux_weakn_vfw_ratio_set
                0x00000000       0x34 C:\Users\a5143778\Documents\MC_Greece\MC_Greece\RA6T2_MCIHV1_IPM_LESS_FOC_WHOLE_PFC_E2S_V100\src\application\motor_module\speed\libr_motor_speed_fluxwkn.a(r_motor_speed_fluxwkn.o)
 .text.motor_speed_flux_weakn_iamax_get
                0x00000000        0x8 C:\Users\a5143778\Documents\MC_Greece\MC_Greece\RA6T2_MCIHV1_IPM_LESS_FOC_WHOLE_PFC_E2S_V100\src\application\motor_module\speed\libr_motor_speed_fluxwkn.a(r_motor_speed_fluxwkn.o)
 .text.motor_speed_flux_weakn_vamax_get
                0x00000000        0x8 C:\Users\a5143778\Documents\MC_Greece\MC_Greece\RA6T2_MCIHV1_IPM_LESS_FOC_WHOLE_PFC_E2S_V100\src\application\motor_module\speed\libr_motor_speed_fluxwkn.a(r_motor_speed_fluxwkn.o)
 .text.motor_speed_flux_weakn_vfw_ratio_get
                0x00000000        0x8 C:\Users\a5143778\Documents\MC_Greece\MC_Greece\RA6T2_MCIHV1_IPM_LESS_FOC_WHOLE_PFC_E2S_V100\src\application\motor_module\speed\libr_motor_speed_fluxwkn.a(r_motor_speed_fluxwkn.o)
 .text.motor_speed_flux_weakn_error_check
                0x00000000       0x10 C:\Users\a5143778\Documents\MC_Greece\MC_Greece\RA6T2_MCIHV1_IPM_LESS_FOC_WHOLE_PFC_E2S_V100\src\application\motor_module\speed\libr_motor_speed_fluxwkn.a(r_motor_speed_fluxwkn.o)
 .text.motor_speed_flux_weakn_invalid_parameter_check
                0x00000000       0x14 C:\Users\a5143778\Documents\MC_Greece\MC_Greece\RA6T2_MCIHV1_IPM_LESS_FOC_WHOLE_PFC_E2S_V100\src\application\motor_module\speed\libr_motor_speed_fluxwkn.a(r_motor_speed_fluxwkn.o)
 .text.motor_speed_flux_weakn_run_time_error_check
                0x00000000       0x14 C:\Users\a5143778\Documents\MC_Greece\MC_Greece\RA6T2_MCIHV1_IPM_LESS_FOC_WHOLE_PFC_E2S_V100\src\application\motor_module\speed\libr_motor_speed_fluxwkn.a(r_motor_speed_fluxwkn.o)
 .data          0x00000000        0x0 C:/Program Files (x86)/Arm GNU Toolchain arm-none-eabi/13.3 rel1/bin/../lib/gcc/arm-none-eabi/13.3.1/thumb/v8-m.main+fp/hard\libgcc.a(_arm_addsubdf3.o)
 .bss           0x00000000        0x0 C:/Program Files (x86)/Arm GNU Toolchain arm-none-eabi/13.3 rel1/bin/../lib/gcc/arm-none-eabi/13.3.1/thumb/v8-m.main+fp/hard\libgcc.a(_arm_addsubdf3.o)
 .data          0x00000000        0x0 C:/Program Files (x86)/Arm GNU Toolchain arm-none-eabi/13.3 rel1/bin/../lib/gcc/arm-none-eabi/13.3.1/thumb/v8-m.main+fp/hard\libgcc.a(_arm_truncdfsf2.o)
 .bss           0x00000000        0x0 C:/Program Files (x86)/Arm GNU Toolchain arm-none-eabi/13.3 rel1/bin/../lib/gcc/arm-none-eabi/13.3.1/thumb/v8-m.main+fp/hard\libgcc.a(_arm_truncdfsf2.o)
 .text          0x00000000        0x0 C:/Program Files (x86)/Arm GNU Toolchain arm-none-eabi/13.3 rel1/bin/../lib/gcc/arm-none-eabi/13.3.1/thumb/v8-m.main+fp/hard\libg_nano.a(libc_a-exit.o)
 .data          0x00000000        0x0 C:/Program Files (x86)/Arm GNU Toolchain arm-none-eabi/13.3 rel1/bin/../lib/gcc/arm-none-eabi/13.3.1/thumb/v8-m.main+fp/hard\libg_nano.a(libc_a-exit.o)
 .bss           0x00000000        0x0 C:/Program Files (x86)/Arm GNU Toolchain arm-none-eabi/13.3 rel1/bin/../lib/gcc/arm-none-eabi/13.3.1/thumb/v8-m.main+fp/hard\libg_nano.a(libc_a-exit.o)
 .text.exit     0x00000000       0x24 C:/Program Files (x86)/Arm GNU Toolchain arm-none-eabi/13.3 rel1/bin/../lib/gcc/arm-none-eabi/13.3.1/thumb/v8-m.main+fp/hard\libg_nano.a(libc_a-exit.o)
 .debug_frame   0x00000000       0x28 C:/Program Files (x86)/Arm GNU Toolchain arm-none-eabi/13.3 rel1/bin/../lib/gcc/arm-none-eabi/13.3.1/thumb/v8-m.main+fp/hard\libg_nano.a(libc_a-exit.o)
 .ARM.attributes
                0x00000000       0x38 C:/Program Files (x86)/Arm GNU Toolchain arm-none-eabi/13.3 rel1/bin/../lib/gcc/arm-none-eabi/13.3.1/thumb/v8-m.main+fp/hard\libg_nano.a(libc_a-exit.o)
 .text          0x00000000        0x0 C:/Program Files (x86)/Arm GNU Toolchain arm-none-eabi/13.3 rel1/bin/../lib/gcc/arm-none-eabi/13.3.1/thumb/v8-m.main+fp/hard\libg_nano.a(libc_a-findfp.o)
 .data          0x00000000        0x0 C:/Program Files (x86)/Arm GNU Toolchain arm-none-eabi/13.3 rel1/bin/../lib/gcc/arm-none-eabi/13.3.1/thumb/v8-m.main+fp/hard\libg_nano.a(libc_a-findfp.o)
 .bss           0x00000000        0x0 C:/Program Files (x86)/Arm GNU Toolchain arm-none-eabi/13.3 rel1/bin/../lib/gcc/arm-none-eabi/13.3.1/thumb/v8-m.main+fp/hard\libg_nano.a(libc_a-findfp.o)
 .text.std      0x00000000       0x6c C:/Program Files (x86)/Arm GNU Toolchain arm-none-eabi/13.3 rel1/bin/../lib/gcc/arm-none-eabi/13.3.1/thumb/v8-m.main+fp/hard\libg_nano.a(libc_a-findfp.o)
 .text.stdio_exit_handler
                0x00000000       0x18 C:/Program Files (x86)/Arm GNU Toolchain arm-none-eabi/13.3 rel1/bin/../lib/gcc/arm-none-eabi/13.3.1/thumb/v8-m.main+fp/hard\libg_nano.a(libc_a-findfp.o)
 .text.cleanup_stdio
                0x00000000       0x40 C:/Program Files (x86)/Arm GNU Toolchain arm-none-eabi/13.3 rel1/bin/../lib/gcc/arm-none-eabi/13.3.1/thumb/v8-m.main+fp/hard\libg_nano.a(libc_a-findfp.o)
 .text.__fp_lock
                0x00000000       0x18 C:/Program Files (x86)/Arm GNU Toolchain arm-none-eabi/13.3 rel1/bin/../lib/gcc/arm-none-eabi/13.3.1/thumb/v8-m.main+fp/hard\libg_nano.a(libc_a-findfp.o)
 .text.__fp_unlock
                0x00000000       0x18 C:/Program Files (x86)/Arm GNU Toolchain arm-none-eabi/13.3 rel1/bin/../lib/gcc/arm-none-eabi/13.3.1/thumb/v8-m.main+fp/hard\libg_nano.a(libc_a-findfp.o)
 .text.global_stdio_init.part.0
                0x00000000       0x3c C:/Program Files (x86)/Arm GNU Toolchain arm-none-eabi/13.3 rel1/bin/../lib/gcc/arm-none-eabi/13.3.1/thumb/v8-m.main+fp/hard\libg_nano.a(libc_a-findfp.o)
 .text.__sfp_lock_acquire
                0x00000000        0xc C:/Program Files (x86)/Arm GNU Toolchain arm-none-eabi/13.3 rel1/bin/../lib/gcc/arm-none-eabi/13.3.1/thumb/v8-m.main+fp/hard\libg_nano.a(libc_a-findfp.o)
 .text.__sfp_lock_release
                0x00000000        0xc C:/Program Files (x86)/Arm GNU Toolchain arm-none-eabi/13.3 rel1/bin/../lib/gcc/arm-none-eabi/13.3.1/thumb/v8-m.main+fp/hard\libg_nano.a(libc_a-findfp.o)
 .text.__sfp    0x00000000       0xa4 C:/Program Files (x86)/Arm GNU Toolchain arm-none-eabi/13.3 rel1/bin/../lib/gcc/arm-none-eabi/13.3.1/thumb/v8-m.main+fp/hard\libg_nano.a(libc_a-findfp.o)
 .text.__sinit  0x00000000       0x30 C:/Program Files (x86)/Arm GNU Toolchain arm-none-eabi/13.3 rel1/bin/../lib/gcc/arm-none-eabi/13.3.1/thumb/v8-m.main+fp/hard\libg_nano.a(libc_a-findfp.o)
 .text.__fp_lock_all
                0x00000000       0x1c C:/Program Files (x86)/Arm GNU Toolchain arm-none-eabi/13.3 rel1/bin/../lib/gcc/arm-none-eabi/13.3.1/thumb/v8-m.main+fp/hard\libg_nano.a(libc_a-findfp.o)
 .text.__fp_unlock_all
                0x00000000       0x1c C:/Program Files (x86)/Arm GNU Toolchain arm-none-eabi/13.3 rel1/bin/../lib/gcc/arm-none-eabi/13.3.1/thumb/v8-m.main+fp/hard\libg_nano.a(libc_a-findfp.o)
 .data.__sglue  0x00000000        0xc C:/Program Files (x86)/Arm GNU Toolchain arm-none-eabi/13.3 rel1/bin/../lib/gcc/arm-none-eabi/13.3.1/thumb/v8-m.main+fp/hard\libg_nano.a(libc_a-findfp.o)
 .bss.__stdio_exit_handler
                0x00000000        0x4 C:/Program Files (x86)/Arm GNU Toolchain arm-none-eabi/13.3 rel1/bin/../lib/gcc/arm-none-eabi/13.3.1/thumb/v8-m.main+fp/hard\libg_nano.a(libc_a-findfp.o)
 .text          0x00000000        0x0 C:/Program Files (x86)/Arm GNU Toolchain arm-none-eabi/13.3 rel1/bin/../lib/gcc/arm-none-eabi/13.3.1/thumb/v8-m.main+fp/hard\libg_nano.a(libc_a-fwalk.o)
 .data          0x00000000        0x0 C:/Program Files (x86)/Arm GNU Toolchain arm-none-eabi/13.3 rel1/bin/../lib/gcc/arm-none-eabi/13.3.1/thumb/v8-m.main+fp/hard\libg_nano.a(libc_a-fwalk.o)
 .bss           0x00000000        0x0 C:/Program Files (x86)/Arm GNU Toolchain arm-none-eabi/13.3 rel1/bin/../lib/gcc/arm-none-eabi/13.3.1/thumb/v8-m.main+fp/hard\libg_nano.a(libc_a-fwalk.o)
 .text._fwalk_sglue
                0x00000000       0x3c C:/Program Files (x86)/Arm GNU Toolchain arm-none-eabi/13.3 rel1/bin/../lib/gcc/arm-none-eabi/13.3.1/thumb/v8-m.main+fp/hard\libg_nano.a(libc_a-fwalk.o)
 .debug_frame   0x00000000       0x34 C:/Program Files (x86)/Arm GNU Toolchain arm-none-eabi/13.3 rel1/bin/../lib/gcc/arm-none-eabi/13.3.1/thumb/v8-m.main+fp/hard\libg_nano.a(libc_a-fwalk.o)
 .ARM.attributes
                0x00000000       0x38 C:/Program Files (x86)/Arm GNU Toolchain arm-none-eabi/13.3 rel1/bin/../lib/gcc/arm-none-eabi/13.3.1/thumb/v8-m.main+fp/hard\libg_nano.a(libc_a-fwalk.o)
 .text          0x00000000        0x0 C:/Program Files (x86)/Arm GNU Toolchain arm-none-eabi/13.3 rel1/bin/../lib/gcc/arm-none-eabi/13.3.1/thumb/v8-m.main+fp/hard\libg_nano.a(libc_a-stdio.o)
 .data          0x00000000        0x0 C:/Program Files (x86)/Arm GNU Toolchain arm-none-eabi/13.3 rel1/bin/../lib/gcc/arm-none-eabi/13.3.1/thumb/v8-m.main+fp/hard\libg_nano.a(libc_a-stdio.o)
 .bss           0x00000000        0x0 C:/Program Files (x86)/Arm GNU Toolchain arm-none-eabi/13.3 rel1/bin/../lib/gcc/arm-none-eabi/13.3.1/thumb/v8-m.main+fp/hard\libg_nano.a(libc_a-stdio.o)
 .text.__sread  0x00000000       0x22 C:/Program Files (x86)/Arm GNU Toolchain arm-none-eabi/13.3 rel1/bin/../lib/gcc/arm-none-eabi/13.3.1/thumb/v8-m.main+fp/hard\libg_nano.a(libc_a-stdio.o)
 .text.__seofread
                0x00000000        0x4 C:/Program Files (x86)/Arm GNU Toolchain arm-none-eabi/13.3 rel1/bin/../lib/gcc/arm-none-eabi/13.3.1/thumb/v8-m.main+fp/hard\libg_nano.a(libc_a-stdio.o)
 .text.__swrite
                0x00000000       0x38 C:/Program Files (x86)/Arm GNU Toolchain arm-none-eabi/13.3 rel1/bin/../lib/gcc/arm-none-eabi/13.3.1/thumb/v8-m.main+fp/hard\libg_nano.a(libc_a-stdio.o)
 .text.__sseek  0x00000000       0x24 C:/Program Files (x86)/Arm GNU Toolchain arm-none-eabi/13.3 rel1/bin/../lib/gcc/arm-none-eabi/13.3.1/thumb/v8-m.main+fp/hard\libg_nano.a(libc_a-stdio.o)
 .text.__sclose
                0x00000000        0x8 C:/Program Files (x86)/Arm GNU Toolchain arm-none-eabi/13.3 rel1/bin/../lib/gcc/arm-none-eabi/13.3.1/thumb/v8-m.main+fp/hard\libg_nano.a(libc_a-stdio.o)
 .debug_frame   0x00000000       0x88 C:/Program Files (x86)/Arm GNU Toolchain arm-none-eabi/13.3 rel1/bin/../lib/gcc/arm-none-eabi/13.3.1/thumb/v8-m.main+fp/hard\libg_nano.a(libc_a-stdio.o)
 .ARM.attributes
                0x00000000       0x38 C:/Program Files (x86)/Arm GNU Toolchain arm-none-eabi/13.3 rel1/bin/../lib/gcc/arm-none-eabi/13.3.1/thumb/v8-m.main+fp/hard\libg_nano.a(libc_a-stdio.o)
 .text          0x00000000        0x0 C:/Program Files (x86)/Arm GNU Toolchain arm-none-eabi/13.3 rel1/bin/../lib/gcc/arm-none-eabi/13.3.1/thumb/v8-m.main+fp/hard\libg_nano.a(libc_a-memset.o)
 .data          0x00000000        0x0 C:/Program Files (x86)/Arm GNU Toolchain arm-none-eabi/13.3 rel1/bin/../lib/gcc/arm-none-eabi/13.3.1/thumb/v8-m.main+fp/hard\libg_nano.a(libc_a-memset.o)
 .bss           0x00000000        0x0 C:/Program Files (x86)/Arm GNU Toolchain arm-none-eabi/13.3 rel1/bin/../lib/gcc/arm-none-eabi/13.3.1/thumb/v8-m.main+fp/hard\libg_nano.a(libc_a-memset.o)
 .text          0x00000000        0x0 C:/Program Files (x86)/Arm GNU Toolchain arm-none-eabi/13.3 rel1/bin/../lib/gcc/arm-none-eabi/13.3.1/thumb/v8-m.main+fp/hard\libg_nano.a(libc_a-closer.o)
 .data          0x00000000        0x0 C:/Program Files (x86)/Arm GNU Toolchain arm-none-eabi/13.3 rel1/bin/../lib/gcc/arm-none-eabi/13.3.1/thumb/v8-m.main+fp/hard\libg_nano.a(libc_a-closer.o)
 .bss           0x00000000        0x0 C:/Program Files (x86)/Arm GNU Toolchain arm-none-eabi/13.3 rel1/bin/../lib/gcc/arm-none-eabi/13.3.1/thumb/v8-m.main+fp/hard\libg_nano.a(libc_a-closer.o)
 .text._close_r
                0x00000000       0x20 C:/Program Files (x86)/Arm GNU Toolchain arm-none-eabi/13.3 rel1/bin/../lib/gcc/arm-none-eabi/13.3.1/thumb/v8-m.main+fp/hard\libg_nano.a(libc_a-closer.o)
 .debug_frame   0x00000000       0x2c C:/Program Files (x86)/Arm GNU Toolchain arm-none-eabi/13.3 rel1/bin/../lib/gcc/arm-none-eabi/13.3.1/thumb/v8-m.main+fp/hard\libg_nano.a(libc_a-closer.o)
 .ARM.attributes
                0x00000000       0x38 C:/Program Files (x86)/Arm GNU Toolchain arm-none-eabi/13.3 rel1/bin/../lib/gcc/arm-none-eabi/13.3.1/thumb/v8-m.main+fp/hard\libg_nano.a(libc_a-closer.o)
 .text          0x00000000        0x0 C:/Program Files (x86)/Arm GNU Toolchain arm-none-eabi/13.3 rel1/bin/../lib/gcc/arm-none-eabi/13.3.1/thumb/v8-m.main+fp/hard\libg_nano.a(libc_a-reent.o)
 .data          0x00000000        0x0 C:/Program Files (x86)/Arm GNU Toolchain arm-none-eabi/13.3 rel1/bin/../lib/gcc/arm-none-eabi/13.3.1/thumb/v8-m.main+fp/hard\libg_nano.a(libc_a-reent.o)
 .bss           0x00000000        0x0 C:/Program Files (x86)/Arm GNU Toolchain arm-none-eabi/13.3 rel1/bin/../lib/gcc/arm-none-eabi/13.3.1/thumb/v8-m.main+fp/hard\libg_nano.a(libc_a-reent.o)
 .text._reclaim_reent
                0x00000000       0xbc C:/Program Files (x86)/Arm GNU Toolchain arm-none-eabi/13.3 rel1/bin/../lib/gcc/arm-none-eabi/13.3.1/thumb/v8-m.main+fp/hard\libg_nano.a(libc_a-reent.o)
 .bss.errno     0x00000000        0x4 C:/Program Files (x86)/Arm GNU Toolchain arm-none-eabi/13.3 rel1/bin/../lib/gcc/arm-none-eabi/13.3.1/thumb/v8-m.main+fp/hard\libg_nano.a(libc_a-reent.o)
 .debug_frame   0x00000000       0x38 C:/Program Files (x86)/Arm GNU Toolchain arm-none-eabi/13.3 rel1/bin/../lib/gcc/arm-none-eabi/13.3.1/thumb/v8-m.main+fp/hard\libg_nano.a(libc_a-reent.o)
 .ARM.attributes
                0x00000000       0x38 C:/Program Files (x86)/Arm GNU Toolchain arm-none-eabi/13.3 rel1/bin/../lib/gcc/arm-none-eabi/13.3.1/thumb/v8-m.main+fp/hard\libg_nano.a(libc_a-reent.o)
 .text          0x00000000        0x0 C:/Program Files (x86)/Arm GNU Toolchain arm-none-eabi/13.3 rel1/bin/../lib/gcc/arm-none-eabi/13.3.1/thumb/v8-m.main+fp/hard\libg_nano.a(libc_a-impure.o)
 .data          0x00000000        0x0 C:/Program Files (x86)/Arm GNU Toolchain arm-none-eabi/13.3 rel1/bin/../lib/gcc/arm-none-eabi/13.3.1/thumb/v8-m.main+fp/hard\libg_nano.a(libc_a-impure.o)
 .bss           0x00000000        0x0 C:/Program Files (x86)/Arm GNU Toolchain arm-none-eabi/13.3 rel1/bin/../lib/gcc/arm-none-eabi/13.3.1/thumb/v8-m.main+fp/hard\libg_nano.a(libc_a-impure.o)
 .text          0x00000000        0x0 C:/Program Files (x86)/Arm GNU Toolchain arm-none-eabi/13.3 rel1/bin/../lib/gcc/arm-none-eabi/13.3.1/thumb/v8-m.main+fp/hard\libg_nano.a(libc_a-lseekr.o)
 .data          0x00000000        0x0 C:/Program Files (x86)/Arm GNU Toolchain arm-none-eabi/13.3 rel1/bin/../lib/gcc/arm-none-eabi/13.3.1/thumb/v8-m.main+fp/hard\libg_nano.a(libc_a-lseekr.o)
 .bss           0x00000000        0x0 C:/Program Files (x86)/Arm GNU Toolchain arm-none-eabi/13.3 rel1/bin/../lib/gcc/arm-none-eabi/13.3.1/thumb/v8-m.main+fp/hard\libg_nano.a(libc_a-lseekr.o)
 .text._lseek_r
                0x00000000       0x24 C:/Program Files (x86)/Arm GNU Toolchain arm-none-eabi/13.3 rel1/bin/../lib/gcc/arm-none-eabi/13.3.1/thumb/v8-m.main+fp/hard\libg_nano.a(libc_a-lseekr.o)
 .debug_frame   0x00000000       0x2c C:/Program Files (x86)/Arm GNU Toolchain arm-none-eabi/13.3 rel1/bin/../lib/gcc/arm-none-eabi/13.3.1/thumb/v8-m.main+fp/hard\libg_nano.a(libc_a-lseekr.o)
 .ARM.attributes
                0x00000000       0x38 C:/Program Files (x86)/Arm GNU Toolchain arm-none-eabi/13.3 rel1/bin/../lib/gcc/arm-none-eabi/13.3.1/thumb/v8-m.main+fp/hard\libg_nano.a(libc_a-lseekr.o)
 .text          0x00000000        0x0 C:/Program Files (x86)/Arm GNU Toolchain arm-none-eabi/13.3 rel1/bin/../lib/gcc/arm-none-eabi/13.3.1/thumb/v8-m.main+fp/hard\libg_nano.a(libc_a-readr.o)
 .data          0x00000000        0x0 C:/Program Files (x86)/Arm GNU Toolchain arm-none-eabi/13.3 rel1/bin/../lib/gcc/arm-none-eabi/13.3.1/thumb/v8-m.main+fp/hard\libg_nano.a(libc_a-readr.o)
 .bss           0x00000000        0x0 C:/Program Files (x86)/Arm GNU Toolchain arm-none-eabi/13.3 rel1/bin/../lib/gcc/arm-none-eabi/13.3.1/thumb/v8-m.main+fp/hard\libg_nano.a(libc_a-readr.o)
 .text._read_r  0x00000000       0x24 C:/Program Files (x86)/Arm GNU Toolchain arm-none-eabi/13.3 rel1/bin/../lib/gcc/arm-none-eabi/13.3.1/thumb/v8-m.main+fp/hard\libg_nano.a(libc_a-readr.o)
 .debug_frame   0x00000000       0x2c C:/Program Files (x86)/Arm GNU Toolchain arm-none-eabi/13.3 rel1/bin/../lib/gcc/arm-none-eabi/13.3.1/thumb/v8-m.main+fp/hard\libg_nano.a(libc_a-readr.o)
 .ARM.attributes
                0x00000000       0x38 C:/Program Files (x86)/Arm GNU Toolchain arm-none-eabi/13.3 rel1/bin/../lib/gcc/arm-none-eabi/13.3.1/thumb/v8-m.main+fp/hard\libg_nano.a(libc_a-readr.o)
 .text          0x00000000        0x0 C:/Program Files (x86)/Arm GNU Toolchain arm-none-eabi/13.3 rel1/bin/../lib/gcc/arm-none-eabi/13.3.1/thumb/v8-m.main+fp/hard\libg_nano.a(libc_a-writer.o)
 .data          0x00000000        0x0 C:/Program Files (x86)/Arm GNU Toolchain arm-none-eabi/13.3 rel1/bin/../lib/gcc/arm-none-eabi/13.3.1/thumb/v8-m.main+fp/hard\libg_nano.a(libc_a-writer.o)
 .bss           0x00000000        0x0 C:/Program Files (x86)/Arm GNU Toolchain arm-none-eabi/13.3 rel1/bin/../lib/gcc/arm-none-eabi/13.3.1/thumb/v8-m.main+fp/hard\libg_nano.a(libc_a-writer.o)
 .text._write_r
                0x00000000       0x24 C:/Program Files (x86)/Arm GNU Toolchain arm-none-eabi/13.3 rel1/bin/../lib/gcc/arm-none-eabi/13.3.1/thumb/v8-m.main+fp/hard\libg_nano.a(libc_a-writer.o)
 .debug_frame   0x00000000       0x2c C:/Program Files (x86)/Arm GNU Toolchain arm-none-eabi/13.3 rel1/bin/../lib/gcc/arm-none-eabi/13.3.1/thumb/v8-m.main+fp/hard\libg_nano.a(libc_a-writer.o)
 .ARM.attributes
                0x00000000       0x38 C:/Program Files (x86)/Arm GNU Toolchain arm-none-eabi/13.3 rel1/bin/../lib/gcc/arm-none-eabi/13.3.1/thumb/v8-m.main+fp/hard\libg_nano.a(libc_a-writer.o)
 .text          0x00000000        0x0 C:/Program Files (x86)/Arm GNU Toolchain arm-none-eabi/13.3 rel1/bin/../lib/gcc/arm-none-eabi/13.3.1/thumb/v8-m.main+fp/hard\libg_nano.a(libc_a-errno.o)
 .data          0x00000000        0x0 C:/Program Files (x86)/Arm GNU Toolchain arm-none-eabi/13.3 rel1/bin/../lib/gcc/arm-none-eabi/13.3.1/thumb/v8-m.main+fp/hard\libg_nano.a(libc_a-errno.o)
 .bss           0x00000000        0x0 C:/Program Files (x86)/Arm GNU Toolchain arm-none-eabi/13.3 rel1/bin/../lib/gcc/arm-none-eabi/13.3.1/thumb/v8-m.main+fp/hard\libg_nano.a(libc_a-errno.o)
 .text          0x00000000        0x0 C:/Program Files (x86)/Arm GNU Toolchain arm-none-eabi/13.3 rel1/bin/../lib/gcc/arm-none-eabi/13.3.1/thumb/v8-m.main+fp/hard\libg_nano.a(libc_a-init.o)
 .data          0x00000000        0x0 C:/Program Files (x86)/Arm GNU Toolchain arm-none-eabi/13.3 rel1/bin/../lib/gcc/arm-none-eabi/13.3.1/thumb/v8-m.main+fp/hard\libg_nano.a(libc_a-init.o)
 .bss           0x00000000        0x0 C:/Program Files (x86)/Arm GNU Toolchain arm-none-eabi/13.3 rel1/bin/../lib/gcc/arm-none-eabi/13.3.1/thumb/v8-m.main+fp/hard\libg_nano.a(libc_a-init.o)
 .text.__libc_init_array
                0x00000000       0x48 C:/Program Files (x86)/Arm GNU Toolchain arm-none-eabi/13.3 rel1/bin/../lib/gcc/arm-none-eabi/13.3.1/thumb/v8-m.main+fp/hard\libg_nano.a(libc_a-init.o)
 .debug_frame   0x00000000       0x2c C:/Program Files (x86)/Arm GNU Toolchain arm-none-eabi/13.3 rel1/bin/../lib/gcc/arm-none-eabi/13.3.1/thumb/v8-m.main+fp/hard\libg_nano.a(libc_a-init.o)
 .ARM.attributes
                0x00000000       0x38 C:/Program Files (x86)/Arm GNU Toolchain arm-none-eabi/13.3 rel1/bin/../lib/gcc/arm-none-eabi/13.3.1/thumb/v8-m.main+fp/hard\libg_nano.a(libc_a-init.o)
 .text          0x00000000        0x0 C:/Program Files (x86)/Arm GNU Toolchain arm-none-eabi/13.3 rel1/bin/../lib/gcc/arm-none-eabi/13.3.1/thumb/v8-m.main+fp/hard\libg_nano.a(libc_a-lock.o)
 .data          0x00000000        0x0 C:/Program Files (x86)/Arm GNU Toolchain arm-none-eabi/13.3 rel1/bin/../lib/gcc/arm-none-eabi/13.3.1/thumb/v8-m.main+fp/hard\libg_nano.a(libc_a-lock.o)
 .bss           0x00000000        0x0 C:/Program Files (x86)/Arm GNU Toolchain arm-none-eabi/13.3 rel1/bin/../lib/gcc/arm-none-eabi/13.3.1/thumb/v8-m.main+fp/hard\libg_nano.a(libc_a-lock.o)
 .text.__retarget_lock_init
                0x00000000        0x2 C:/Program Files (x86)/Arm GNU Toolchain arm-none-eabi/13.3 rel1/bin/../lib/gcc/arm-none-eabi/13.3.1/thumb/v8-m.main+fp/hard\libg_nano.a(libc_a-lock.o)
 .text.__retarget_lock_init_recursive
                0x00000000        0x2 C:/Program Files (x86)/Arm GNU Toolchain arm-none-eabi/13.3 rel1/bin/../lib/gcc/arm-none-eabi/13.3.1/thumb/v8-m.main+fp/hard\libg_nano.a(libc_a-lock.o)
 .text.__retarget_lock_close
                0x00000000        0x2 C:/Program Files (x86)/Arm GNU Toolchain arm-none-eabi/13.3 rel1/bin/../lib/gcc/arm-none-eabi/13.3.1/thumb/v8-m.main+fp/hard\libg_nano.a(libc_a-lock.o)
 .text.__retarget_lock_close_recursive
                0x00000000        0x2 C:/Program Files (x86)/Arm GNU Toolchain arm-none-eabi/13.3 rel1/bin/../lib/gcc/arm-none-eabi/13.3.1/thumb/v8-m.main+fp/hard\libg_nano.a(libc_a-lock.o)
 .text.__retarget_lock_acquire
                0x00000000        0x2 C:/Program Files (x86)/Arm GNU Toolchain arm-none-eabi/13.3 rel1/bin/../lib/gcc/arm-none-eabi/13.3.1/thumb/v8-m.main+fp/hard\libg_nano.a(libc_a-lock.o)
 .text.__retarget_lock_acquire_recursive
                0x00000000        0x2 C:/Program Files (x86)/Arm GNU Toolchain arm-none-eabi/13.3 rel1/bin/../lib/gcc/arm-none-eabi/13.3.1/thumb/v8-m.main+fp/hard\libg_nano.a(libc_a-lock.o)
 .text.__retarget_lock_try_acquire
                0x00000000        0x4 C:/Program Files (x86)/Arm GNU Toolchain arm-none-eabi/13.3 rel1/bin/../lib/gcc/arm-none-eabi/13.3.1/thumb/v8-m.main+fp/hard\libg_nano.a(libc_a-lock.o)
 .text.__retarget_lock_try_acquire_recursive
                0x00000000        0x4 C:/Program Files (x86)/Arm GNU Toolchain arm-none-eabi/13.3 rel1/bin/../lib/gcc/arm-none-eabi/13.3.1/thumb/v8-m.main+fp/hard\libg_nano.a(libc_a-lock.o)
 .text.__retarget_lock_release
                0x00000000        0x2 C:/Program Files (x86)/Arm GNU Toolchain arm-none-eabi/13.3 rel1/bin/../lib/gcc/arm-none-eabi/13.3.1/thumb/v8-m.main+fp/hard\libg_nano.a(libc_a-lock.o)
 .text.__retarget_lock_release_recursive
                0x00000000        0x2 C:/Program Files (x86)/Arm GNU Toolchain arm-none-eabi/13.3 rel1/bin/../lib/gcc/arm-none-eabi/13.3.1/thumb/v8-m.main+fp/hard\libg_nano.a(libc_a-lock.o)
 .bss.__lock___arc4random_mutex
                0x00000000        0x1 C:/Program Files (x86)/Arm GNU Toolchain arm-none-eabi/13.3 rel1/bin/../lib/gcc/arm-none-eabi/13.3.1/thumb/v8-m.main+fp/hard\libg_nano.a(libc_a-lock.o)
 .bss.__lock___dd_hash_mutex
                0x00000000        0x1 C:/Program Files (x86)/Arm GNU Toolchain arm-none-eabi/13.3 rel1/bin/../lib/gcc/arm-none-eabi/13.3.1/thumb/v8-m.main+fp/hard\libg_nano.a(libc_a-lock.o)
 .bss.__lock___tz_mutex
                0x00000000        0x1 C:/Program Files (x86)/Arm GNU Toolchain arm-none-eabi/13.3 rel1/bin/../lib/gcc/arm-none-eabi/13.3.1/thumb/v8-m.main+fp/hard\libg_nano.a(libc_a-lock.o)
 .bss.__lock___env_recursive_mutex
                0x00000000        0x1 C:/Program Files (x86)/Arm GNU Toolchain arm-none-eabi/13.3 rel1/bin/../lib/gcc/arm-none-eabi/13.3.1/thumb/v8-m.main+fp/hard\libg_nano.a(libc_a-lock.o)
 .bss.__lock___malloc_recursive_mutex
                0x00000000        0x1 C:/Program Files (x86)/Arm GNU Toolchain arm-none-eabi/13.3 rel1/bin/../lib/gcc/arm-none-eabi/13.3.1/thumb/v8-m.main+fp/hard\libg_nano.a(libc_a-lock.o)
 .bss.__lock___at_quick_exit_mutex
                0x00000000        0x1 C:/Program Files (x86)/Arm GNU Toolchain arm-none-eabi/13.3 rel1/bin/../lib/gcc/arm-none-eabi/13.3.1/thumb/v8-m.main+fp/hard\libg_nano.a(libc_a-lock.o)
 .bss.__lock___atexit_recursive_mutex
                0x00000000        0x1 C:/Program Files (x86)/Arm GNU Toolchain arm-none-eabi/13.3 rel1/bin/../lib/gcc/arm-none-eabi/13.3.1/thumb/v8-m.main+fp/hard\libg_nano.a(libc_a-lock.o)
 .bss.__lock___sfp_recursive_mutex
                0x00000000        0x1 C:/Program Files (x86)/Arm GNU Toolchain arm-none-eabi/13.3 rel1/bin/../lib/gcc/arm-none-eabi/13.3.1/thumb/v8-m.main+fp/hard\libg_nano.a(libc_a-lock.o)
 .debug_frame   0x00000000       0xb0 C:/Program Files (x86)/Arm GNU Toolchain arm-none-eabi/13.3 rel1/bin/../lib/gcc/arm-none-eabi/13.3.1/thumb/v8-m.main+fp/hard\libg_nano.a(libc_a-lock.o)
 .ARM.attributes
                0x00000000       0x38 C:/Program Files (x86)/Arm GNU Toolchain arm-none-eabi/13.3 rel1/bin/../lib/gcc/arm-none-eabi/13.3.1/thumb/v8-m.main+fp/hard\libg_nano.a(libc_a-lock.o)
 .text          0x00000000        0x0 C:/Program Files (x86)/Arm GNU Toolchain arm-none-eabi/13.3 rel1/bin/../lib/gcc/arm-none-eabi/13.3.1/thumb/v8-m.main+fp/hard\libg_nano.a(libc_a-memcpy-stub.o)
 .data          0x00000000        0x0 C:/Program Files (x86)/Arm GNU Toolchain arm-none-eabi/13.3 rel1/bin/../lib/gcc/arm-none-eabi/13.3.1/thumb/v8-m.main+fp/hard\libg_nano.a(libc_a-memcpy-stub.o)
 .bss           0x00000000        0x0 C:/Program Files (x86)/Arm GNU Toolchain arm-none-eabi/13.3 rel1/bin/../lib/gcc/arm-none-eabi/13.3.1/thumb/v8-m.main+fp/hard\libg_nano.a(libc_a-memcpy-stub.o)
 .text          0x00000000        0x0 C:/Program Files (x86)/Arm GNU Toolchain arm-none-eabi/13.3 rel1/bin/../lib/gcc/arm-none-eabi/13.3.1/thumb/v8-m.main+fp/hard\libg_nano.a(libc_a-freer.o)
 .data          0x00000000        0x0 C:/Program Files (x86)/Arm GNU Toolchain arm-none-eabi/13.3 rel1/bin/../lib/gcc/arm-none-eabi/13.3.1/thumb/v8-m.main+fp/hard\libg_nano.a(libc_a-freer.o)
 .bss           0x00000000        0x0 C:/Program Files (x86)/Arm GNU Toolchain arm-none-eabi/13.3 rel1/bin/../lib/gcc/arm-none-eabi/13.3.1/thumb/v8-m.main+fp/hard\libg_nano.a(libc_a-freer.o)
 .text._free_r  0x00000000       0x94 C:/Program Files (x86)/Arm GNU Toolchain arm-none-eabi/13.3 rel1/bin/../lib/gcc/arm-none-eabi/13.3.1/thumb/v8-m.main+fp/hard\libg_nano.a(libc_a-freer.o)
 .debug_frame   0x00000000       0x38 C:/Program Files (x86)/Arm GNU Toolchain arm-none-eabi/13.3 rel1/bin/../lib/gcc/arm-none-eabi/13.3.1/thumb/v8-m.main+fp/hard\libg_nano.a(libc_a-freer.o)
 .ARM.attributes
                0x00000000       0x38 C:/Program Files (x86)/Arm GNU Toolchain arm-none-eabi/13.3 rel1/bin/../lib/gcc/arm-none-eabi/13.3.1/thumb/v8-m.main+fp/hard\libg_nano.a(libc_a-freer.o)
 .text          0x00000000        0x0 C:/Program Files (x86)/Arm GNU Toolchain arm-none-eabi/13.3 rel1/bin/../lib/gcc/arm-none-eabi/13.3.1/thumb/v8-m.main+fp/hard\libg_nano.a(libc_a-mallocr.o)
 .data          0x00000000        0x0 C:/Program Files (x86)/Arm GNU Toolchain arm-none-eabi/13.3 rel1/bin/../lib/gcc/arm-none-eabi/13.3.1/thumb/v8-m.main+fp/hard\libg_nano.a(libc_a-mallocr.o)
 .bss           0x00000000        0x0 C:/Program Files (x86)/Arm GNU Toolchain arm-none-eabi/13.3 rel1/bin/../lib/gcc/arm-none-eabi/13.3.1/thumb/v8-m.main+fp/hard\libg_nano.a(libc_a-mallocr.o)
 .text.sbrk_aligned
                0x00000000       0x44 C:/Program Files (x86)/Arm GNU Toolchain arm-none-eabi/13.3 rel1/bin/../lib/gcc/arm-none-eabi/13.3.1/thumb/v8-m.main+fp/hard\libg_nano.a(libc_a-mallocr.o)
 .text._malloc_r
                0x00000000      0x100 C:/Program Files (x86)/Arm GNU Toolchain arm-none-eabi/13.3 rel1/bin/../lib/gcc/arm-none-eabi/13.3.1/thumb/v8-m.main+fp/hard\libg_nano.a(libc_a-mallocr.o)
 .bss.__malloc_sbrk_start
                0x00000000        0x4 C:/Program Files (x86)/Arm GNU Toolchain arm-none-eabi/13.3 rel1/bin/../lib/gcc/arm-none-eabi/13.3.1/thumb/v8-m.main+fp/hard\libg_nano.a(libc_a-mallocr.o)
 .bss.__malloc_free_list
                0x00000000        0x4 C:/Program Files (x86)/Arm GNU Toolchain arm-none-eabi/13.3 rel1/bin/../lib/gcc/arm-none-eabi/13.3.1/thumb/v8-m.main+fp/hard\libg_nano.a(libc_a-mallocr.o)
 .debug_frame   0x00000000       0x50 C:/Program Files (x86)/Arm GNU Toolchain arm-none-eabi/13.3 rel1/bin/../lib/gcc/arm-none-eabi/13.3.1/thumb/v8-m.main+fp/hard\libg_nano.a(libc_a-mallocr.o)
 .ARM.attributes
                0x00000000       0x38 C:/Program Files (x86)/Arm GNU Toolchain arm-none-eabi/13.3 rel1/bin/../lib/gcc/arm-none-eabi/13.3.1/thumb/v8-m.main+fp/hard\libg_nano.a(libc_a-mallocr.o)
 .text          0x00000000        0x0 C:/Program Files (x86)/Arm GNU Toolchain arm-none-eabi/13.3 rel1/bin/../lib/gcc/arm-none-eabi/13.3.1/thumb/v8-m.main+fp/hard\libg_nano.a(libc_a-mlock.o)
 .data          0x00000000        0x0 C:/Program Files (x86)/Arm GNU Toolchain arm-none-eabi/13.3 rel1/bin/../lib/gcc/arm-none-eabi/13.3.1/thumb/v8-m.main+fp/hard\libg_nano.a(libc_a-mlock.o)
 .bss           0x00000000        0x0 C:/Program Files (x86)/Arm GNU Toolchain arm-none-eabi/13.3 rel1/bin/../lib/gcc/arm-none-eabi/13.3.1/thumb/v8-m.main+fp/hard\libg_nano.a(libc_a-mlock.o)
 .text.__malloc_lock
                0x00000000        0xc C:/Program Files (x86)/Arm GNU Toolchain arm-none-eabi/13.3 rel1/bin/../lib/gcc/arm-none-eabi/13.3.1/thumb/v8-m.main+fp/hard\libg_nano.a(libc_a-mlock.o)
 .text.__malloc_unlock
                0x00000000        0xc C:/Program Files (x86)/Arm GNU Toolchain arm-none-eabi/13.3 rel1/bin/../lib/gcc/arm-none-eabi/13.3.1/thumb/v8-m.main+fp/hard\libg_nano.a(libc_a-mlock.o)
 .debug_frame   0x00000000       0x30 C:/Program Files (x86)/Arm GNU Toolchain arm-none-eabi/13.3 rel1/bin/../lib/gcc/arm-none-eabi/13.3.1/thumb/v8-m.main+fp/hard\libg_nano.a(libc_a-mlock.o)
 .ARM.attributes
                0x00000000       0x38 C:/Program Files (x86)/Arm GNU Toolchain arm-none-eabi/13.3 rel1/bin/../lib/gcc/arm-none-eabi/13.3.1/thumb/v8-m.main+fp/hard\libg_nano.a(libc_a-mlock.o)
 .text          0x00000000        0x0 C:/Program Files (x86)/Arm GNU Toolchain arm-none-eabi/13.3 rel1/bin/../lib/gcc/arm-none-eabi/13.3.1/thumb/v8-m.main+fp/hard\libg_nano.a(libc_a-fflush.o)
 .data          0x00000000        0x0 C:/Program Files (x86)/Arm GNU Toolchain arm-none-eabi/13.3 rel1/bin/../lib/gcc/arm-none-eabi/13.3.1/thumb/v8-m.main+fp/hard\libg_nano.a(libc_a-fflush.o)
 .bss           0x00000000        0x0 C:/Program Files (x86)/Arm GNU Toolchain arm-none-eabi/13.3 rel1/bin/../lib/gcc/arm-none-eabi/13.3.1/thumb/v8-m.main+fp/hard\libg_nano.a(libc_a-fflush.o)
 .text.__sflush_r
                0x00000000      0x108 C:/Program Files (x86)/Arm GNU Toolchain arm-none-eabi/13.3 rel1/bin/../lib/gcc/arm-none-eabi/13.3.1/thumb/v8-m.main+fp/hard\libg_nano.a(libc_a-fflush.o)
 .text._fflush_r
                0x00000000       0x50 C:/Program Files (x86)/Arm GNU Toolchain arm-none-eabi/13.3 rel1/bin/../lib/gcc/arm-none-eabi/13.3.1/thumb/v8-m.main+fp/hard\libg_nano.a(libc_a-fflush.o)
 .text.fflush   0x00000000       0x28 C:/Program Files (x86)/Arm GNU Toolchain arm-none-eabi/13.3 rel1/bin/../lib/gcc/arm-none-eabi/13.3.1/thumb/v8-m.main+fp/hard\libg_nano.a(libc_a-fflush.o)
 .debug_frame   0x00000000       0x5c C:/Program Files (x86)/Arm GNU Toolchain arm-none-eabi/13.3 rel1/bin/../lib/gcc/arm-none-eabi/13.3.1/thumb/v8-m.main+fp/hard\libg_nano.a(libc_a-fflush.o)
 .ARM.attributes
                0x00000000       0x38 C:/Program Files (x86)/Arm GNU Toolchain arm-none-eabi/13.3 rel1/bin/../lib/gcc/arm-none-eabi/13.3.1/thumb/v8-m.main+fp/hard\libg_nano.a(libc_a-fflush.o)
 .text          0x00000000        0x0 C:/Program Files (x86)/Arm GNU Toolchain arm-none-eabi/13.3 rel1/bin/../lib/gcc/arm-none-eabi/13.3.1/thumb/v8-m.main+fp/hard\libg_nano.a(libc_a-sbrkr.o)
 .data          0x00000000        0x0 C:/Program Files (x86)/Arm GNU Toolchain arm-none-eabi/13.3 rel1/bin/../lib/gcc/arm-none-eabi/13.3.1/thumb/v8-m.main+fp/hard\libg_nano.a(libc_a-sbrkr.o)
 .bss           0x00000000        0x0 C:/Program Files (x86)/Arm GNU Toolchain arm-none-eabi/13.3 rel1/bin/../lib/gcc/arm-none-eabi/13.3.1/thumb/v8-m.main+fp/hard\libg_nano.a(libc_a-sbrkr.o)
 .text._sbrk_r  0x00000000       0x20 C:/Program Files (x86)/Arm GNU Toolchain arm-none-eabi/13.3 rel1/bin/../lib/gcc/arm-none-eabi/13.3.1/thumb/v8-m.main+fp/hard\libg_nano.a(libc_a-sbrkr.o)
 .debug_frame   0x00000000       0x2c C:/Program Files (x86)/Arm GNU Toolchain arm-none-eabi/13.3 rel1/bin/../lib/gcc/arm-none-eabi/13.3.1/thumb/v8-m.main+fp/hard\libg_nano.a(libc_a-sbrkr.o)
 .ARM.attributes
                0x00000000       0x38 C:/Program Files (x86)/Arm GNU Toolchain arm-none-eabi/13.3 rel1/bin/../lib/gcc/arm-none-eabi/13.3.1/thumb/v8-m.main+fp/hard\libg_nano.a(libc_a-sbrkr.o)
 .text          0x00000000        0x0 C:/Program Files (x86)/Arm GNU Toolchain arm-none-eabi/13.3 rel1/bin/../lib/gcc/arm-none-eabi/13.3.1/thumb/v8-m.main+fp/hard\librdimon_nano.a(arm_librdimon_a-_exit.o)
 .data          0x00000000        0x0 C:/Program Files (x86)/Arm GNU Toolchain arm-none-eabi/13.3 rel1/bin/../lib/gcc/arm-none-eabi/13.3.1/thumb/v8-m.main+fp/hard\librdimon_nano.a(arm_librdimon_a-_exit.o)
 .bss           0x00000000        0x0 C:/Program Files (x86)/Arm GNU Toolchain arm-none-eabi/13.3 rel1/bin/../lib/gcc/arm-none-eabi/13.3.1/thumb/v8-m.main+fp/hard\librdimon_nano.a(arm_librdimon_a-_exit.o)
 .text._exit    0x00000000       0x14 C:/Program Files (x86)/Arm GNU Toolchain arm-none-eabi/13.3 rel1/bin/../lib/gcc/arm-none-eabi/13.3.1/thumb/v8-m.main+fp/hard\librdimon_nano.a(arm_librdimon_a-_exit.o)
 .debug_frame   0x00000000       0x28 C:/Program Files (x86)/Arm GNU Toolchain arm-none-eabi/13.3 rel1/bin/../lib/gcc/arm-none-eabi/13.3.1/thumb/v8-m.main+fp/hard\librdimon_nano.a(arm_librdimon_a-_exit.o)
 .ARM.attributes
                0x00000000       0x38 C:/Program Files (x86)/Arm GNU Toolchain arm-none-eabi/13.3 rel1/bin/../lib/gcc/arm-none-eabi/13.3.1/thumb/v8-m.main+fp/hard\librdimon_nano.a(arm_librdimon_a-_exit.o)
 .text          0x00000000        0x0 C:/Program Files (x86)/Arm GNU Toolchain arm-none-eabi/13.3 rel1/bin/../lib/gcc/arm-none-eabi/13.3.1/thumb/v8-m.main+fp/hard\librdimon_nano.a(arm_librdimon_a-_kill.o)
 .data          0x00000000        0x0 C:/Program Files (x86)/Arm GNU Toolchain arm-none-eabi/13.3 rel1/bin/../lib/gcc/arm-none-eabi/13.3.1/thumb/v8-m.main+fp/hard\librdimon_nano.a(arm_librdimon_a-_kill.o)
 .bss           0x00000000        0x0 C:/Program Files (x86)/Arm GNU Toolchain arm-none-eabi/13.3 rel1/bin/../lib/gcc/arm-none-eabi/13.3.1/thumb/v8-m.main+fp/hard\librdimon_nano.a(arm_librdimon_a-_kill.o)
 .text._kill_shared
                0x00000000       0x26 C:/Program Files (x86)/Arm GNU Toolchain arm-none-eabi/13.3 rel1/bin/../lib/gcc/arm-none-eabi/13.3.1/thumb/v8-m.main+fp/hard\librdimon_nano.a(arm_librdimon_a-_kill.o)
 .text._kill    0x00000000       0x18 C:/Program Files (x86)/Arm GNU Toolchain arm-none-eabi/13.3 rel1/bin/../lib/gcc/arm-none-eabi/13.3.1/thumb/v8-m.main+fp/hard\librdimon_nano.a(arm_librdimon_a-_kill.o)
 .debug_frame   0x00000000       0x40 C:/Program Files (x86)/Arm GNU Toolchain arm-none-eabi/13.3 rel1/bin/../lib/gcc/arm-none-eabi/13.3.1/thumb/v8-m.main+fp/hard\librdimon_nano.a(arm_librdimon_a-_kill.o)
 .ARM.attributes
                0x00000000       0x38 C:/Program Files (x86)/Arm GNU Toolchain arm-none-eabi/13.3 rel1/bin/../lib/gcc/arm-none-eabi/13.3.1/thumb/v8-m.main+fp/hard\librdimon_nano.a(arm_librdimon_a-_kill.o)
 .text          0x00000000        0x0 C:/Program Files (x86)/Arm GNU Toolchain arm-none-eabi/13.3 rel1/bin/../lib/gcc/arm-none-eabi/13.3.1/thumb/v8-m.main+fp/hard\librdimon_nano.a(arm_librdimon_a-syscalls.o)
 .data          0x00000000        0x0 C:/Program Files (x86)/Arm GNU Toolchain arm-none-eabi/13.3 rel1/bin/../lib/gcc/arm-none-eabi/13.3.1/thumb/v8-m.main+fp/hard\librdimon_nano.a(arm_librdimon_a-syscalls.o)
 .bss           0x00000000        0x0 C:/Program Files (x86)/Arm GNU Toolchain arm-none-eabi/13.3 rel1/bin/../lib/gcc/arm-none-eabi/13.3.1/thumb/v8-m.main+fp/hard\librdimon_nano.a(arm_librdimon_a-syscalls.o)
 .text.findslot
                0x00000000       0x34 C:/Program Files (x86)/Arm GNU Toolchain arm-none-eabi/13.3 rel1/bin/../lib/gcc/arm-none-eabi/13.3.1/thumb/v8-m.main+fp/hard\librdimon_nano.a(arm_librdimon_a-syscalls.o)
 .text.error    0x00000000       0x1c C:/Program Files (x86)/Arm GNU Toolchain arm-none-eabi/13.3 rel1/bin/../lib/gcc/arm-none-eabi/13.3.1/thumb/v8-m.main+fp/hard\librdimon_nano.a(arm_librdimon_a-syscalls.o)
 .text.checkerror
                0x00000000        0xa C:/Program Files (x86)/Arm GNU Toolchain arm-none-eabi/13.3 rel1/bin/../lib/gcc/arm-none-eabi/13.3.1/thumb/v8-m.main+fp/hard\librdimon_nano.a(arm_librdimon_a-syscalls.o)
 .text._swiread
                0x00000000       0x20 C:/Program Files (x86)/Arm GNU Toolchain arm-none-eabi/13.3 rel1/bin/../lib/gcc/arm-none-eabi/13.3.1/thumb/v8-m.main+fp/hard\librdimon_nano.a(arm_librdimon_a-syscalls.o)
 .text._read    0x00000000       0x34 C:/Program Files (x86)/Arm GNU Toolchain arm-none-eabi/13.3 rel1/bin/../lib/gcc/arm-none-eabi/13.3.1/thumb/v8-m.main+fp/hard\librdimon_nano.a(arm_librdimon_a-syscalls.o)
 .text._swilseek
                0x00000000       0x78 C:/Program Files (x86)/Arm GNU Toolchain arm-none-eabi/13.3 rel1/bin/../lib/gcc/arm-none-eabi/13.3.1/thumb/v8-m.main+fp/hard\librdimon_nano.a(arm_librdimon_a-syscalls.o)
 .text._lseek   0x00000000        0x4 C:/Program Files (x86)/Arm GNU Toolchain arm-none-eabi/13.3 rel1/bin/../lib/gcc/arm-none-eabi/13.3.1/thumb/v8-m.main+fp/hard\librdimon_nano.a(arm_librdimon_a-syscalls.o)
 .text._swiwrite
                0x00000000       0x20 C:/Program Files (x86)/Arm GNU Toolchain arm-none-eabi/13.3 rel1/bin/../lib/gcc/arm-none-eabi/13.3.1/thumb/v8-m.main+fp/hard\librdimon_nano.a(arm_librdimon_a-syscalls.o)
 .text._write   0x00000000       0x40 C:/Program Files (x86)/Arm GNU Toolchain arm-none-eabi/13.3 rel1/bin/../lib/gcc/arm-none-eabi/13.3.1/thumb/v8-m.main+fp/hard\librdimon_nano.a(arm_librdimon_a-syscalls.o)
 .text._swiclose
                0x00000000       0x1a C:/Program Files (x86)/Arm GNU Toolchain arm-none-eabi/13.3 rel1/bin/../lib/gcc/arm-none-eabi/13.3.1/thumb/v8-m.main+fp/hard\librdimon_nano.a(arm_librdimon_a-syscalls.o)
 .text._close   0x00000000       0x4c C:/Program Files (x86)/Arm GNU Toolchain arm-none-eabi/13.3 rel1/bin/../lib/gcc/arm-none-eabi/13.3.1/thumb/v8-m.main+fp/hard\librdimon_nano.a(arm_librdimon_a-syscalls.o)
 .text._getpid  0x00000000        0x4 C:/Program Files (x86)/Arm GNU Toolchain arm-none-eabi/13.3 rel1/bin/../lib/gcc/arm-none-eabi/13.3.1/thumb/v8-m.main+fp/hard\librdimon_nano.a(arm_librdimon_a-syscalls.o)
 .text._sbrk    0x00000000       0x48 C:/Program Files (x86)/Arm GNU Toolchain arm-none-eabi/13.3 rel1/bin/../lib/gcc/arm-none-eabi/13.3.1/thumb/v8-m.main+fp/hard\librdimon_nano.a(arm_librdimon_a-syscalls.o)
 .text._swistat
                0x00000000       0x42 C:/Program Files (x86)/Arm GNU Toolchain arm-none-eabi/13.3 rel1/bin/../lib/gcc/arm-none-eabi/13.3.1/thumb/v8-m.main+fp/hard\librdimon_nano.a(arm_librdimon_a-syscalls.o)
 .text._fstat   0x00000000       0x1c C:/Program Files (x86)/Arm GNU Toolchain arm-none-eabi/13.3 rel1/bin/../lib/gcc/arm-none-eabi/13.3.1/thumb/v8-m.main+fp/hard\librdimon_nano.a(arm_librdimon_a-syscalls.o)
 .text._stat    0x00000000       0x3a C:/Program Files (x86)/Arm GNU Toolchain arm-none-eabi/13.3 rel1/bin/../lib/gcc/arm-none-eabi/13.3.1/thumb/v8-m.main+fp/hard\librdimon_nano.a(arm_librdimon_a-syscalls.o)
 .text._swiopen
                0x00000000       0xb0 C:/Program Files (x86)/Arm GNU Toolchain arm-none-eabi/13.3 rel1/bin/../lib/gcc/arm-none-eabi/13.3.1/thumb/v8-m.main+fp/hard\librdimon_nano.a(arm_librdimon_a-syscalls.o)
 .text._open    0x00000000       0x12 C:/Program Files (x86)/Arm GNU Toolchain arm-none-eabi/13.3 rel1/bin/../lib/gcc/arm-none-eabi/13.3.1/thumb/v8-m.main+fp/hard\librdimon_nano.a(arm_librdimon_a-syscalls.o)
 .rodata._get_semihosting_exts.str1.1
                0x00000000       0x16 C:/Program Files (x86)/Arm GNU Toolchain arm-none-eabi/13.3 rel1/bin/../lib/gcc/arm-none-eabi/13.3.1/thumb/v8-m.main+fp/hard\librdimon_nano.a(arm_librdimon_a-syscalls.o)
 .text._get_semihosting_exts
                0x00000000       0xb4 C:/Program Files (x86)/Arm GNU Toolchain arm-none-eabi/13.3 rel1/bin/../lib/gcc/arm-none-eabi/13.3.1/thumb/v8-m.main+fp/hard\librdimon_nano.a(arm_librdimon_a-syscalls.o)
 .text.initialise_semihosting_exts
                0x00000000       0x34 C:/Program Files (x86)/Arm GNU Toolchain arm-none-eabi/13.3 rel1/bin/../lib/gcc/arm-none-eabi/13.3.1/thumb/v8-m.main+fp/hard\librdimon_nano.a(arm_librdimon_a-syscalls.o)
 .text._has_ext_exit_extended
                0x00000000       0x18 C:/Program Files (x86)/Arm GNU Toolchain arm-none-eabi/13.3 rel1/bin/../lib/gcc/arm-none-eabi/13.3.1/thumb/v8-m.main+fp/hard\librdimon_nano.a(arm_librdimon_a-syscalls.o)
 .text._has_ext_stdout_stderr
                0x00000000       0x18 C:/Program Files (x86)/Arm GNU Toolchain arm-none-eabi/13.3 rel1/bin/../lib/gcc/arm-none-eabi/13.3.1/thumb/v8-m.main+fp/hard\librdimon_nano.a(arm_librdimon_a-syscalls.o)
 .rodata.initialise_monitor_handles.str1.1
                0x00000000        0x4 C:/Program Files (x86)/Arm GNU Toolchain arm-none-eabi/13.3 rel1/bin/../lib/gcc/arm-none-eabi/13.3.1/thumb/v8-m.main+fp/hard\librdimon_nano.a(arm_librdimon_a-syscalls.o)
 .text.initialise_monitor_handles
                0x00000000       0xc0 C:/Program Files (x86)/Arm GNU Toolchain arm-none-eabi/13.3 rel1/bin/../lib/gcc/arm-none-eabi/13.3.1/thumb/v8-m.main+fp/hard\librdimon_nano.a(arm_librdimon_a-syscalls.o)
 .text._link    0x00000000       0x10 C:/Program Files (x86)/Arm GNU Toolchain arm-none-eabi/13.3 rel1/bin/../lib/gcc/arm-none-eabi/13.3.1/thumb/v8-m.main+fp/hard\librdimon_nano.a(arm_librdimon_a-syscalls.o)
 .text._unlink  0x00000000       0x28 C:/Program Files (x86)/Arm GNU Toolchain arm-none-eabi/13.3 rel1/bin/../lib/gcc/arm-none-eabi/13.3.1/thumb/v8-m.main+fp/hard\librdimon_nano.a(arm_librdimon_a-syscalls.o)
 .text._gettimeofday
                0x00000000       0x28 C:/Program Files (x86)/Arm GNU Toolchain arm-none-eabi/13.3 rel1/bin/../lib/gcc/arm-none-eabi/13.3.1/thumb/v8-m.main+fp/hard\librdimon_nano.a(arm_librdimon_a-syscalls.o)
 .text._clock   0x00000000       0x12 C:/Program Files (x86)/Arm GNU Toolchain arm-none-eabi/13.3 rel1/bin/../lib/gcc/arm-none-eabi/13.3.1/thumb/v8-m.main+fp/hard\librdimon_nano.a(arm_librdimon_a-syscalls.o)
 .text._times   0x00000000       0x16 C:/Program Files (x86)/Arm GNU Toolchain arm-none-eabi/13.3 rel1/bin/../lib/gcc/arm-none-eabi/13.3.1/thumb/v8-m.main+fp/hard\librdimon_nano.a(arm_librdimon_a-syscalls.o)
 .text._isatty  0x00000000       0x3a C:/Program Files (x86)/Arm GNU Toolchain arm-none-eabi/13.3 rel1/bin/../lib/gcc/arm-none-eabi/13.3.1/thumb/v8-m.main+fp/hard\librdimon_nano.a(arm_librdimon_a-syscalls.o)
 .text._system  0x00000000       0x3c C:/Program Files (x86)/Arm GNU Toolchain arm-none-eabi/13.3 rel1/bin/../lib/gcc/arm-none-eabi/13.3.1/thumb/v8-m.main+fp/hard\librdimon_nano.a(arm_librdimon_a-syscalls.o)
 .text._rename  0x00000000       0x36 C:/Program Files (x86)/Arm GNU Toolchain arm-none-eabi/13.3 rel1/bin/../lib/gcc/arm-none-eabi/13.3.1/thumb/v8-m.main+fp/hard\librdimon_nano.a(arm_librdimon_a-syscalls.o)
 .bss.heap_end.0
                0x00000000        0x4 C:/Program Files (x86)/Arm GNU Toolchain arm-none-eabi/13.3 rel1/bin/../lib/gcc/arm-none-eabi/13.3.1/thumb/v8-m.main+fp/hard\librdimon_nano.a(arm_librdimon_a-syscalls.o)
 .data.__heap_limit
                0x00000000        0x4 C:/Program Files (x86)/Arm GNU Toolchain arm-none-eabi/13.3 rel1/bin/../lib/gcc/arm-none-eabi/13.3.1/thumb/v8-m.main+fp/hard\librdimon_nano.a(arm_librdimon_a-syscalls.o)
 .data.supports_ext_stdout_stderr
                0x00000000        0x4 C:/Program Files (x86)/Arm GNU Toolchain arm-none-eabi/13.3 rel1/bin/../lib/gcc/arm-none-eabi/13.3.1/thumb/v8-m.main+fp/hard\librdimon_nano.a(arm_librdimon_a-syscalls.o)
 .data.supports_ext_exit_extended
                0x00000000        0x4 C:/Program Files (x86)/Arm GNU Toolchain arm-none-eabi/13.3 rel1/bin/../lib/gcc/arm-none-eabi/13.3.1/thumb/v8-m.main+fp/hard\librdimon_nano.a(arm_librdimon_a-syscalls.o)
 .bss.monitor_stderr
                0x00000000        0x4 C:/Program Files (x86)/Arm GNU Toolchain arm-none-eabi/13.3 rel1/bin/../lib/gcc/arm-none-eabi/13.3.1/thumb/v8-m.main+fp/hard\librdimon_nano.a(arm_librdimon_a-syscalls.o)
 .bss.monitor_stdout
                0x00000000        0x4 C:/Program Files (x86)/Arm GNU Toolchain arm-none-eabi/13.3 rel1/bin/../lib/gcc/arm-none-eabi/13.3.1/thumb/v8-m.main+fp/hard\librdimon_nano.a(arm_librdimon_a-syscalls.o)
 .bss.monitor_stdin
                0x00000000        0x4 C:/Program Files (x86)/Arm GNU Toolchain arm-none-eabi/13.3 rel1/bin/../lib/gcc/arm-none-eabi/13.3.1/thumb/v8-m.main+fp/hard\librdimon_nano.a(arm_librdimon_a-syscalls.o)
 .bss.openfiles
                0x00000000       0xa0 C:/Program Files (x86)/Arm GNU Toolchain arm-none-eabi/13.3 rel1/bin/../lib/gcc/arm-none-eabi/13.3.1/thumb/v8-m.main+fp/hard\librdimon_nano.a(arm_librdimon_a-syscalls.o)
 .debug_frame   0x00000000      0x39c C:/Program Files (x86)/Arm GNU Toolchain arm-none-eabi/13.3 rel1/bin/../lib/gcc/arm-none-eabi/13.3.1/thumb/v8-m.main+fp/hard\librdimon_nano.a(arm_librdimon_a-syscalls.o)
 .ARM.attributes
                0x00000000       0x38 C:/Program Files (x86)/Arm GNU Toolchain arm-none-eabi/13.3 rel1/bin/../lib/gcc/arm-none-eabi/13.3.1/thumb/v8-m.main+fp/hard\librdimon_nano.a(arm_librdimon_a-syscalls.o)
 .text          0x00000000       0x10 C:/Program Files (x86)/Arm GNU Toolchain arm-none-eabi/13.3 rel1/bin/../lib/gcc/arm-none-eabi/13.3.1/thumb/v8-m.main+fp/hard\libc_nano.a(libc_a-strlen.o)
 .data          0x00000000        0x0 C:/Program Files (x86)/Arm GNU Toolchain arm-none-eabi/13.3 rel1/bin/../lib/gcc/arm-none-eabi/13.3.1/thumb/v8-m.main+fp/hard\libc_nano.a(libc_a-strlen.o)
 .bss           0x00000000        0x0 C:/Program Files (x86)/Arm GNU Toolchain arm-none-eabi/13.3 rel1/bin/../lib/gcc/arm-none-eabi/13.3.1/thumb/v8-m.main+fp/hard\libc_nano.a(libc_a-strlen.o)
 .ARM.extab     0x00000000        0x0 C:/Program Files (x86)/Arm GNU Toolchain arm-none-eabi/13.3 rel1/bin/../lib/gcc/arm-none-eabi/13.3.1/thumb/v8-m.main+fp/hard\libc_nano.a(libc_a-strlen.o)
 .ARM.exidx     0x00000000        0x8 C:/Program Files (x86)/Arm GNU Toolchain arm-none-eabi/13.3 rel1/bin/../lib/gcc/arm-none-eabi/13.3.1/thumb/v8-m.main+fp/hard\libc_nano.a(libc_a-strlen.o)
 .text          0x00000000        0x0 C:/Program Files (x86)/Arm GNU Toolchain arm-none-eabi/13.3 rel1/bin/../lib/gcc/arm-none-eabi/13.3.1/thumb/v8-m.main+fp/hard/crtend.o
 .data          0x00000000        0x0 C:/Program Files (x86)/Arm GNU Toolchain arm-none-eabi/13.3 rel1/bin/../lib/gcc/arm-none-eabi/13.3.1/thumb/v8-m.main+fp/hard/crtend.o
 .bss           0x00000000        0x0 C:/Program Files (x86)/Arm GNU Toolchain arm-none-eabi/13.3 rel1/bin/../lib/gcc/arm-none-eabi/13.3.1/thumb/v8-m.main+fp/hard/crtend.o
 .rodata.all_implied_fbits
                0x00000000       0x24 C:/Program Files (x86)/Arm GNU Toolchain arm-none-eabi/13.3 rel1/bin/../lib/gcc/arm-none-eabi/13.3.1/thumb/v8-m.main+fp/hard/crtend.o
 .text          0x00000000        0x0 C:/Program Files (x86)/Arm GNU Toolchain arm-none-eabi/13.3 rel1/bin/../lib/gcc/arm-none-eabi/13.3.1/thumb/v8-m.main+fp/hard/crtn.o
 .data          0x00000000        0x0 C:/Program Files (x86)/Arm GNU Toolchain arm-none-eabi/13.3 rel1/bin/../lib/gcc/arm-none-eabi/13.3.1/thumb/v8-m.main+fp/hard/crtn.o
 .bss           0x00000000        0x0 C:/Program Files (x86)/Arm GNU Toolchain arm-none-eabi/13.3 rel1/bin/../lib/gcc/arm-none-eabi/13.3.1/thumb/v8-m.main+fp/hard/crtn.o
 .text          0x00000000        0x0 C:/Program Files (x86)/Arm GNU Toolchain arm-none-eabi/13.3 rel1/bin/../lib/gcc/arm-none-eabi/13.3.1/thumb/v8-m.main+fp/hard\libm.a(libm_a-w_sqrt.o)
 .data          0x00000000        0x0 C:/Program Files (x86)/Arm GNU Toolchain arm-none-eabi/13.3 rel1/bin/../lib/gcc/arm-none-eabi/13.3.1/thumb/v8-m.main+fp/hard\libm.a(libm_a-w_sqrt.o)
 .bss           0x00000000        0x0 C:/Program Files (x86)/Arm GNU Toolchain arm-none-eabi/13.3 rel1/bin/../lib/gcc/arm-none-eabi/13.3.1/thumb/v8-m.main+fp/hard\libm.a(libm_a-w_sqrt.o)
 .text          0x00000000        0x0 C:/Program Files (x86)/Arm GNU Toolchain arm-none-eabi/13.3 rel1/bin/../lib/gcc/arm-none-eabi/13.3.1/thumb/v8-m.main+fp/hard\libm.a(libm_a-wf_atan2.o)
 .data          0x00000000        0x0 C:/Program Files (x86)/Arm GNU Toolchain arm-none-eabi/13.3 rel1/bin/../lib/gcc/arm-none-eabi/13.3.1/thumb/v8-m.main+fp/hard\libm.a(libm_a-wf_atan2.o)
 .bss           0x00000000        0x0 C:/Program Files (x86)/Arm GNU Toolchain arm-none-eabi/13.3 rel1/bin/../lib/gcc/arm-none-eabi/13.3.1/thumb/v8-m.main+fp/hard\libm.a(libm_a-wf_atan2.o)
 .text          0x00000000        0x0 C:/Program Files (x86)/Arm GNU Toolchain arm-none-eabi/13.3 rel1/bin/../lib/gcc/arm-none-eabi/13.3.1/thumb/v8-m.main+fp/hard\libm.a(libm_a-wf_sqrt.o)
 .data          0x00000000        0x0 C:/Program Files (x86)/Arm GNU Toolchain arm-none-eabi/13.3 rel1/bin/../lib/gcc/arm-none-eabi/13.3.1/thumb/v8-m.main+fp/hard\libm.a(libm_a-wf_sqrt.o)
 .bss           0x00000000        0x0 C:/Program Files (x86)/Arm GNU Toolchain arm-none-eabi/13.3 rel1/bin/../lib/gcc/arm-none-eabi/13.3.1/thumb/v8-m.main+fp/hard\libm.a(libm_a-wf_sqrt.o)
 .text          0x00000000        0x0 C:/Program Files (x86)/Arm GNU Toolchain arm-none-eabi/13.3 rel1/bin/../lib/gcc/arm-none-eabi/13.3.1/thumb/v8-m.main+fp/hard\libm.a(libm_a-sf_atan.o)
 .data          0x00000000        0x0 C:/Program Files (x86)/Arm GNU Toolchain arm-none-eabi/13.3 rel1/bin/../lib/gcc/arm-none-eabi/13.3.1/thumb/v8-m.main+fp/hard\libm.a(libm_a-sf_atan.o)
 .bss           0x00000000        0x0 C:/Program Files (x86)/Arm GNU Toolchain arm-none-eabi/13.3 rel1/bin/../lib/gcc/arm-none-eabi/13.3.1/thumb/v8-m.main+fp/hard\libm.a(libm_a-sf_atan.o)
 .text          0x00000000        0x0 C:/Program Files (x86)/Arm GNU Toolchain arm-none-eabi/13.3 rel1/bin/../lib/gcc/arm-none-eabi/13.3.1/thumb/v8-m.main+fp/hard\libm.a(libm_a-sf_cos.o)
 .data          0x00000000        0x0 C:/Program Files (x86)/Arm GNU Toolchain arm-none-eabi/13.3 rel1/bin/../lib/gcc/arm-none-eabi/13.3.1/thumb/v8-m.main+fp/hard\libm.a(libm_a-sf_cos.o)
 .bss           0x00000000        0x0 C:/Program Files (x86)/Arm GNU Toolchain arm-none-eabi/13.3 rel1/bin/../lib/gcc/arm-none-eabi/13.3.1/thumb/v8-m.main+fp/hard\libm.a(libm_a-sf_cos.o)
 .text          0x00000000        0x0 C:/Program Files (x86)/Arm GNU Toolchain arm-none-eabi/13.3 rel1/bin/../lib/gcc/arm-none-eabi/13.3.1/thumb/v8-m.main+fp/hard\libm.a(libm_a-sf_fabs.o)
 .data          0x00000000        0x0 C:/Program Files (x86)/Arm GNU Toolchain arm-none-eabi/13.3 rel1/bin/../lib/gcc/arm-none-eabi/13.3.1/thumb/v8-m.main+fp/hard\libm.a(libm_a-sf_fabs.o)
 .bss           0x00000000        0x0 C:/Program Files (x86)/Arm GNU Toolchain arm-none-eabi/13.3 rel1/bin/../lib/gcc/arm-none-eabi/13.3.1/thumb/v8-m.main+fp/hard\libm.a(libm_a-sf_fabs.o)
 .text          0x00000000        0x0 C:/Program Files (x86)/Arm GNU Toolchain arm-none-eabi/13.3 rel1/bin/../lib/gcc/arm-none-eabi/13.3.1/thumb/v8-m.main+fp/hard\libm.a(libm_a-sf_sin.o)
 .data          0x00000000        0x0 C:/Program Files (x86)/Arm GNU Toolchain arm-none-eabi/13.3 rel1/bin/../lib/gcc/arm-none-eabi/13.3.1/thumb/v8-m.main+fp/hard\libm.a(libm_a-sf_sin.o)
 .bss           0x00000000        0x0 C:/Program Files (x86)/Arm GNU Toolchain arm-none-eabi/13.3 rel1/bin/../lib/gcc/arm-none-eabi/13.3.1/thumb/v8-m.main+fp/hard\libm.a(libm_a-sf_sin.o)
 .text          0x00000000        0x0 C:/Program Files (x86)/Arm GNU Toolchain arm-none-eabi/13.3 rel1/bin/../lib/gcc/arm-none-eabi/13.3.1/thumb/v8-m.main+fp/hard\libm.a(libm_a-e_sqrt.o)
 .data          0x00000000        0x0 C:/Program Files (x86)/Arm GNU Toolchain arm-none-eabi/13.3 rel1/bin/../lib/gcc/arm-none-eabi/13.3.1/thumb/v8-m.main+fp/hard\libm.a(libm_a-e_sqrt.o)
 .bss           0x00000000        0x0 C:/Program Files (x86)/Arm GNU Toolchain arm-none-eabi/13.3 rel1/bin/../lib/gcc/arm-none-eabi/13.3.1/thumb/v8-m.main+fp/hard\libm.a(libm_a-e_sqrt.o)
 .text          0x00000000        0x0 C:/Program Files (x86)/Arm GNU Toolchain arm-none-eabi/13.3 rel1/bin/../lib/gcc/arm-none-eabi/13.3.1/thumb/v8-m.main+fp/hard\libm.a(libm_a-ef_sqrt.o)
 .data          0x00000000        0x0 C:/Program Files (x86)/Arm GNU Toolchain arm-none-eabi/13.3 rel1/bin/../lib/gcc/arm-none-eabi/13.3.1/thumb/v8-m.main+fp/hard\libm.a(libm_a-ef_sqrt.o)
 .bss           0x00000000        0x0 C:/Program Files (x86)/Arm GNU Toolchain arm-none-eabi/13.3 rel1/bin/../lib/gcc/arm-none-eabi/13.3.1/thumb/v8-m.main+fp/hard\libm.a(libm_a-ef_sqrt.o)
 .text          0x00000000        0x0 C:/Program Files (x86)/Arm GNU Toolchain arm-none-eabi/13.3 rel1/bin/../lib/gcc/arm-none-eabi/13.3.1/thumb/v8-m.main+fp/hard\libm.a(libm_a-kf_cos.o)
 .data          0x00000000        0x0 C:/Program Files (x86)/Arm GNU Toolchain arm-none-eabi/13.3 rel1/bin/../lib/gcc/arm-none-eabi/13.3.1/thumb/v8-m.main+fp/hard\libm.a(libm_a-kf_cos.o)
 .bss           0x00000000        0x0 C:/Program Files (x86)/Arm GNU Toolchain arm-none-eabi/13.3 rel1/bin/../lib/gcc/arm-none-eabi/13.3.1/thumb/v8-m.main+fp/hard\libm.a(libm_a-kf_cos.o)
 .text          0x00000000        0x0 C:/Program Files (x86)/Arm GNU Toolchain arm-none-eabi/13.3 rel1/bin/../lib/gcc/arm-none-eabi/13.3.1/thumb/v8-m.main+fp/hard\libm.a(libm_a-kf_sin.o)
 .data          0x00000000        0x0 C:/Program Files (x86)/Arm GNU Toolchain arm-none-eabi/13.3 rel1/bin/../lib/gcc/arm-none-eabi/13.3.1/thumb/v8-m.main+fp/hard\libm.a(libm_a-kf_sin.o)
 .bss           0x00000000        0x0 C:/Program Files (x86)/Arm GNU Toolchain arm-none-eabi/13.3 rel1/bin/../lib/gcc/arm-none-eabi/13.3.1/thumb/v8-m.main+fp/hard\libm.a(libm_a-kf_sin.o)
 .text          0x00000000        0x0 C:/Program Files (x86)/Arm GNU Toolchain arm-none-eabi/13.3 rel1/bin/../lib/gcc/arm-none-eabi/13.3.1/thumb/v8-m.main+fp/hard\libm.a(libm_a-ef_atan2.o)
 .data          0x00000000        0x0 C:/Program Files (x86)/Arm GNU Toolchain arm-none-eabi/13.3 rel1/bin/../lib/gcc/arm-none-eabi/13.3.1/thumb/v8-m.main+fp/hard\libm.a(libm_a-ef_atan2.o)
 .bss           0x00000000        0x0 C:/Program Files (x86)/Arm GNU Toolchain arm-none-eabi/13.3 rel1/bin/../lib/gcc/arm-none-eabi/13.3.1/thumb/v8-m.main+fp/hard\libm.a(libm_a-ef_atan2.o)
 .text          0x00000000        0x0 C:/Program Files (x86)/Arm GNU Toolchain arm-none-eabi/13.3 rel1/bin/../lib/gcc/arm-none-eabi/13.3.1/thumb/v8-m.main+fp/hard\libm.a(libm_a-ef_rem_pio2.o)
 .data          0x00000000        0x0 C:/Program Files (x86)/Arm GNU Toolchain arm-none-eabi/13.3 rel1/bin/../lib/gcc/arm-none-eabi/13.3.1/thumb/v8-m.main+fp/hard\libm.a(libm_a-ef_rem_pio2.o)
 .bss           0x00000000        0x0 C:/Program Files (x86)/Arm GNU Toolchain arm-none-eabi/13.3 rel1/bin/../lib/gcc/arm-none-eabi/13.3.1/thumb/v8-m.main+fp/hard\libm.a(libm_a-ef_rem_pio2.o)
 .text          0x00000000        0x0 C:/Program Files (x86)/Arm GNU Toolchain arm-none-eabi/13.3 rel1/bin/../lib/gcc/arm-none-eabi/13.3.1/thumb/v8-m.main+fp/hard\libm.a(libm_a-kf_rem_pio2.o)
 .data          0x00000000        0x0 C:/Program Files (x86)/Arm GNU Toolchain arm-none-eabi/13.3 rel1/bin/../lib/gcc/arm-none-eabi/13.3.1/thumb/v8-m.main+fp/hard\libm.a(libm_a-kf_rem_pio2.o)
 .bss           0x00000000        0x0 C:/Program Files (x86)/Arm GNU Toolchain arm-none-eabi/13.3 rel1/bin/../lib/gcc/arm-none-eabi/13.3.1/thumb/v8-m.main+fp/hard\libm.a(libm_a-kf_rem_pio2.o)
 .text          0x00000000        0x0 C:/Program Files (x86)/Arm GNU Toolchain arm-none-eabi/13.3 rel1/bin/../lib/gcc/arm-none-eabi/13.3.1/thumb/v8-m.main+fp/hard\libm.a(libm_a-sf_scalbn.o)
 .data          0x00000000        0x0 C:/Program Files (x86)/Arm GNU Toolchain arm-none-eabi/13.3 rel1/bin/../lib/gcc/arm-none-eabi/13.3.1/thumb/v8-m.main+fp/hard\libm.a(libm_a-sf_scalbn.o)
 .bss           0x00000000        0x0 C:/Program Files (x86)/Arm GNU Toolchain arm-none-eabi/13.3 rel1/bin/../lib/gcc/arm-none-eabi/13.3.1/thumb/v8-m.main+fp/hard\libm.a(libm_a-sf_scalbn.o)
 .text          0x00000000        0x0 C:/Program Files (x86)/Arm GNU Toolchain arm-none-eabi/13.3 rel1/bin/../lib/gcc/arm-none-eabi/13.3.1/thumb/v8-m.main+fp/hard\libm.a(libm_a-sf_floor.o)
 .data          0x00000000        0x0 C:/Program Files (x86)/Arm GNU Toolchain arm-none-eabi/13.3 rel1/bin/../lib/gcc/arm-none-eabi/13.3.1/thumb/v8-m.main+fp/hard\libm.a(libm_a-sf_floor.o)
 .bss           0x00000000        0x0 C:/Program Files (x86)/Arm GNU Toolchain arm-none-eabi/13.3 rel1/bin/../lib/gcc/arm-none-eabi/13.3.1/thumb/v8-m.main+fp/hard\libm.a(libm_a-sf_floor.o)
 .text          0x00000000      0x254 C:/Program Files (x86)/Arm GNU Toolchain arm-none-eabi/13.3 rel1/bin/../lib/gcc/arm-none-eabi/13.3.1/thumb/v8-m.main+fp/hard\libgcc.a(_arm_muldf3.o)
 .data          0x00000000        0x0 C:/Program Files (x86)/Arm GNU Toolchain arm-none-eabi/13.3 rel1/bin/../lib/gcc/arm-none-eabi/13.3.1/thumb/v8-m.main+fp/hard\libgcc.a(_arm_muldf3.o)
 .bss           0x00000000        0x0 C:/Program Files (x86)/Arm GNU Toolchain arm-none-eabi/13.3 rel1/bin/../lib/gcc/arm-none-eabi/13.3.1/thumb/v8-m.main+fp/hard\libgcc.a(_arm_muldf3.o)
 .debug_line_str
                0x00000000       0xd2 C:/Program Files (x86)/Arm GNU Toolchain arm-none-eabi/13.3 rel1/bin/../lib/gcc/arm-none-eabi/13.3.1/thumb/v8-m.main+fp/hard\libgcc.a(_arm_muldf3.o)
 .debug_frame   0x00000000       0x30 C:/Program Files (x86)/Arm GNU Toolchain arm-none-eabi/13.3 rel1/bin/../lib/gcc/arm-none-eabi/13.3.1/thumb/v8-m.main+fp/hard\libgcc.a(_arm_muldf3.o)
 .ARM.attributes
                0x00000000       0x26 C:/Program Files (x86)/Arm GNU Toolchain arm-none-eabi/13.3 rel1/bin/../lib/gcc/arm-none-eabi/13.3.1/thumb/v8-m.main+fp/hard\libgcc.a(_arm_muldf3.o)
 .data          0x00000000        0x0 C:/Program Files (x86)/Arm GNU Toolchain arm-none-eabi/13.3 rel1/bin/../lib/gcc/arm-none-eabi/13.3.1/thumb/v8-m.main+fp/hard\libgcc.a(_arm_muldivdf3.o)
 .bss           0x00000000        0x0 C:/Program Files (x86)/Arm GNU Toolchain arm-none-eabi/13.3 rel1/bin/../lib/gcc/arm-none-eabi/13.3.1/thumb/v8-m.main+fp/hard\libgcc.a(_arm_muldivdf3.o)
 .data          0x00000000        0x0 C:/Program Files (x86)/Arm GNU Toolchain arm-none-eabi/13.3 rel1/bin/../lib/gcc/arm-none-eabi/13.3.1/thumb/v8-m.main+fp/hard\libgcc.a(_arm_cmpdf2.o)
 .bss           0x00000000        0x0 C:/Program Files (x86)/Arm GNU Toolchain arm-none-eabi/13.3 rel1/bin/../lib/gcc/arm-none-eabi/13.3.1/thumb/v8-m.main+fp/hard\libgcc.a(_arm_cmpdf2.o)
 .data          0x00000000        0x0 C:/Program Files (x86)/Arm GNU Toolchain arm-none-eabi/13.3 rel1/bin/../lib/gcc/arm-none-eabi/13.3.1/thumb/v8-m.main+fp/hard\libgcc.a(_arm_unorddf2.o)
 .bss           0x00000000        0x0 C:/Program Files (x86)/Arm GNU Toolchain arm-none-eabi/13.3 rel1/bin/../lib/gcc/arm-none-eabi/13.3.1/thumb/v8-m.main+fp/hard\libgcc.a(_arm_unorddf2.o)

Memory Configuration

Name             Origin             Length             Attributes
ITCM             0x00000000         0x00000000         xr
DTCM             0x00000000         0x00000000         xrw
FLASH            0x00000000         0x00080000         xr
RAM              0x20000000         0x00010000         xrw
DATA_FLASH       0x08000000         0x00004000         xr
QSPI_FLASH       0x60000000         0x00000000         xr
OSPI_DEVICE_0    0x80020000         0x00000000         xr
OSPI_DEVICE_1    0x80030000         0x00000000         xr
OSPI_DEVICE_0_RAM 0x80020000         0x00000000         xrw
OSPI_DEVICE_1_RAM 0x80030000         0x00000000         xrw
SDRAM            0x80010000         0x00000000         xrw
OPTION_SETTING   0x0100a100         0x00000100         r
OPTION_SETTING_OFS 0x0100a100         0x00000018         r
OPTION_SETTING_SAS 0x0100a134         0x000000cc         r
OPTION_SETTING_S 0x0100a200         0x00000100         r
ID_CODE          0x00000000         0x00000000         xr
*default*        0x00000000         0xffffffff

Linker script and memory map

LOAD C:/Program Files (x86)/Arm GNU Toolchain arm-none-eabi/13.3 rel1/bin/../lib/gcc/arm-none-eabi/13.3.1/thumb/v8-m.main+fp/hard/crti.o
LOAD C:/Program Files (x86)/Arm GNU Toolchain arm-none-eabi/13.3 rel1/bin/../lib/gcc/arm-none-eabi/13.3.1/thumb/v8-m.main+fp/hard/crtbegin.o
LOAD C:/Program Files (x86)/Arm GNU Toolchain arm-none-eabi/13.3 rel1/bin/../lib/gcc/arm-none-eabi/13.3.1/thumb/v8-m.main+fp/hard/rdimon-crt0.o
START GROUP
LOAD ./src/application/user_interface/ics/r_mtr_ics.o
LOAD ./src/application/system_module/system_manager/r_system_manager_api.o
LOAD ./src/application/motor_module/speed/r_motor_speed.o
LOAD ./src/application/motor_module/speed/r_motor_speed_api.o
LOAD ./src/application/motor_module/speed/r_motor_speed_mtpa.o
LOAD ./src/application/motor_module/speed/r_motor_speed_pi_gain_calc.o
LOAD ./src/application/motor_module/sensorless_vector/r_motor_sensorless_vector_action.o
LOAD ./src/application/motor_module/sensorless_vector/r_motor_sensorless_vector_api.o
LOAD ./src/application/motor_module/sensorless_vector/r_motor_sensorless_vector_manager.o
LOAD ./src/application/motor_module/sensorless_vector/r_motor_sensorless_vector_protection.o
LOAD ./src/application/motor_module/sensorless_vector/r_motor_sensorless_vector_statemachine.o
LOAD ./src/application/motor_module/general/r_motor_filter.o
LOAD ./src/application/motor_module/general/r_motor_pi_control.o
LOAD ./src/application/motor_module/driver/r_motor_driver.o
LOAD ./src/application/motor_module/driver/r_motor_driver_fsp.o
LOAD ./src/application/motor_module/current/r_motor_current.o
LOAD ./src/application/motor_module/current/r_motor_current_api.o
LOAD ./src/application/motor_module/current/r_motor_current_modulation.o
LOAD ./src/application/motor_module/current/r_motor_current_pi_gain_calc.o
LOAD ./src/application/main/mtr_main.o
LOAD ./src/hal_entry.o
LOAD ./ra_gen/common_data.o
LOAD ./ra_gen/hal_data.o
LOAD ./ra_gen/main.o
LOAD ./ra_gen/pin_data.o
LOAD ./ra_gen/vector_data.o
LOAD ./ra/fsp/src/r_poeg/r_poeg.o
LOAD ./ra/fsp/src/r_ioport/r_ioport.o
LOAD ./ra/fsp/src/r_gpt_three_phase/r_gpt_three_phase.o
LOAD ./ra/fsp/src/r_gpt/r_gpt.o
LOAD ./ra/fsp/src/r_agt/r_agt.o
LOAD ./ra/fsp/src/r_adc_b/r_adc_b.o
LOAD ./ra/fsp/src/bsp/mcu/all/bsp_clocks.o
LOAD ./ra/fsp/src/bsp/mcu/all/bsp_common.o
LOAD ./ra/fsp/src/bsp/mcu/all/bsp_delay.o
LOAD ./ra/fsp/src/bsp/mcu/all/bsp_group_irq.o
LOAD ./ra/fsp/src/bsp/mcu/all/bsp_guard.o
LOAD ./ra/fsp/src/bsp/mcu/all/bsp_io.o
LOAD ./ra/fsp/src/bsp/mcu/all/bsp_irq.o
LOAD ./ra/fsp/src/bsp/mcu/all/bsp_macl.o
LOAD ./ra/fsp/src/bsp/mcu/all/bsp_register_protection.o
LOAD ./ra/fsp/src/bsp/mcu/all/bsp_rom_registers.o
LOAD ./ra/fsp/src/bsp/mcu/all/bsp_sbrk.o
LOAD ./ra/fsp/src/bsp/mcu/all/bsp_sdram.o
LOAD ./ra/fsp/src/bsp/mcu/all/bsp_security.o
LOAD ./ra/fsp/src/bsp/cmsis/Device/RENESAS/Source/startup.o
LOAD ./ra/fsp/src/bsp/cmsis/Device/RENESAS/Source/system.o
LOAD C:/Users/a5143778/Documents/MC_Greece/MC_Greece/RA6T2_MCIHV1_IPM_LESS_FOC_WHOLE_PFC_E2S_V100/src/application/user_interface/ics/ICS2_RA6T2.o
LOAD C:\Users\a5143778\Documents\MC_Greece\MC_Greece\RA6T2_MCIHV1_IPM_LESS_FOC_WHOLE_PFC_E2S_V100\src\application\motor_module\current\libr_motor_current_bemf_observer.a
LOAD C:\Users\a5143778\Documents\MC_Greece\MC_Greece\RA6T2_MCIHV1_IPM_LESS_FOC_WHOLE_PFC_E2S_V100\src\application\motor_module\current\libr_motor_current_lowspd_sensorless.a
LOAD C:\Users\a5143778\Documents\MC_Greece\MC_Greece\RA6T2_MCIHV1_IPM_LESS_FOC_WHOLE_PFC_E2S_V100\src\application\motor_module\current\libr_motor_current_stall_detection.a
LOAD C:\Users\a5143778\Documents\MC_Greece\MC_Greece\RA6T2_MCIHV1_IPM_LESS_FOC_WHOLE_PFC_E2S_V100\src\application\motor_module\current\libr_motor_current_trq_vib_comp.a
LOAD C:\Users\a5143778\Documents\MC_Greece\MC_Greece\RA6T2_MCIHV1_IPM_LESS_FOC_WHOLE_PFC_E2S_V100\src\application\motor_module\current\libr_motor_current_volt_err_comp.a
LOAD C:\Users\a5143778\Documents\MC_Greece\MC_Greece\RA6T2_MCIHV1_IPM_LESS_FOC_WHOLE_PFC_E2S_V100\src\application\motor_module\sensorless_vector\libr_motor_sensorless_vector_flyingstart.a
LOAD C:\Users\a5143778\Documents\MC_Greece\MC_Greece\RA6T2_MCIHV1_IPM_LESS_FOC_WHOLE_PFC_E2S_V100\src\application\motor_module\speed\libr_motor_speed_extobserver.a
LOAD C:\Users\a5143778\Documents\MC_Greece\MC_Greece\RA6T2_MCIHV1_IPM_LESS_FOC_WHOLE_PFC_E2S_V100\src\application\motor_module\speed\libr_motor_speed_fluxwkn.a
END GROUP
START GROUP
LOAD C:/Program Files (x86)/Arm GNU Toolchain arm-none-eabi/13.3 rel1/bin/../lib/gcc/arm-none-eabi/13.3.1/thumb/v8-m.main+fp/hard\libgcc.a
LOAD C:/Program Files (x86)/Arm GNU Toolchain arm-none-eabi/13.3 rel1/bin/../lib/gcc/arm-none-eabi/13.3.1/thumb/v8-m.main+fp/hard\libg_nano.a
LOAD C:/Program Files (x86)/Arm GNU Toolchain arm-none-eabi/13.3 rel1/bin/../lib/gcc/arm-none-eabi/13.3.1/thumb/v8-m.main+fp/hard\libc_nano.a
END GROUP
START GROUP
LOAD C:/Program Files (x86)/Arm GNU Toolchain arm-none-eabi/13.3 rel1/bin/../lib/gcc/arm-none-eabi/13.3.1/thumb/v8-m.main+fp/hard\libgcc.a
LOAD C:/Program Files (x86)/Arm GNU Toolchain arm-none-eabi/13.3 rel1/bin/../lib/gcc/arm-none-eabi/13.3.1/thumb/v8-m.main+fp/hard\libc_nano.a
LOAD C:/Program Files (x86)/Arm GNU Toolchain arm-none-eabi/13.3 rel1/bin/../lib/gcc/arm-none-eabi/13.3.1/thumb/v8-m.main+fp/hard\librdimon_nano.a
END GROUP
START GROUP
LOAD C:/Program Files (x86)/Arm GNU Toolchain arm-none-eabi/13.3 rel1/bin/../lib/gcc/arm-none-eabi/13.3.1/thumb/v8-m.main+fp/hard\libgcc.a
LOAD C:/Program Files (x86)/Arm GNU Toolchain arm-none-eabi/13.3 rel1/bin/../lib/gcc/arm-none-eabi/13.3.1/thumb/v8-m.main+fp/hard\libc_nano.a
LOAD C:/Program Files (x86)/Arm GNU Toolchain arm-none-eabi/13.3 rel1/bin/../lib/gcc/arm-none-eabi/13.3.1/thumb/v8-m.main+fp/hard\librdimon_nano.a
END GROUP
LOAD C:/Program Files (x86)/Arm GNU Toolchain arm-none-eabi/13.3 rel1/bin/../lib/gcc/arm-none-eabi/13.3.1/thumb/v8-m.main+fp/hard/crtend.o
LOAD C:/Program Files (x86)/Arm GNU Toolchain arm-none-eabi/13.3 rel1/bin/../lib/gcc/arm-none-eabi/13.3.1/thumb/v8-m.main+fp/hard/crtn.o
                0x20000000                        RAM_START = 0x20000000
                0x00010000                        RAM_LENGTH = 0x10000
                0x00000000                        FLASH_START = 0x0
                0x00080000                        FLASH_LENGTH = 0x80000
                0x08000000                        DATA_FLASH_START = 0x8000000
                0x00004000                        DATA_FLASH_LENGTH = 0x4000
                0x0100a100                        OPTION_SETTING_START = 0x100a100
                0x00000100                        OPTION_SETTING_LENGTH = 0x100
                0x0100a200                        OPTION_SETTING_S_START = 0x100a200
                0x00000100                        OPTION_SETTING_S_LENGTH = 0x100
                0x00000000                        ID_CODE_START = 0x0
                0x00000000                        ID_CODE_LENGTH = 0x0
                0x80010000                        SDRAM_START = 0x80010000
                0x00000000                        SDRAM_LENGTH = 0x0
                0x60000000                        QSPI_FLASH_START = 0x60000000
                0x00000000                        QSPI_FLASH_LENGTH = 0x0
                0x80020000                        OSPI_DEVICE_0_START = 0x80020000
                0x00000000                        OSPI_DEVICE_0_LENGTH = 0x0
                0x80030000                        OSPI_DEVICE_1_START = 0x80030000
                0x00000000                        OSPI_DEVICE_1_LENGTH = 0x0
                0x00000000                        QSPI_FLASH_PRV_LENGTH = DEFINED (QSPI_FLASH_SIZE)?ABSOLUTE (QSPI_FLASH_SIZE):ABSOLUTE (QSPI_FLASH_LENGTH)
                0x00000000                        OSPI_DEVICE_0_PRV_LENGTH = DEFINED (OSPI_DEVICE_0_SIZE)?ABSOLUTE (OSPI_DEVICE_0_SIZE):ABSOLUTE (OSPI_DEVICE_0_LENGTH)
                0x00000000                        OSPI_DEVICE_1_PRV_LENGTH = DEFINED (OSPI_DEVICE_1_SIZE)?ABSOLUTE (OSPI_DEVICE_1_SIZE):ABSOLUTE (OSPI_DEVICE_1_LENGTH)
                0x00000000                        __RESERVE_NS_RAM = ((! (DEFINED (PROJECT_NONSECURE)) && DEFINED (RAM_NS_BUFFER_LENGTH)) && (OPTION_SETTING_S_LENGTH != 0x0))
                0x00000000                        ITCM_START = DEFINED (ITCM_START)?ITCM_START:0x0
                0x00000000                        ITCM_LENGTH = DEFINED (ITCM_LENGTH)?ITCM_LENGTH:0x0
                0x00000000                        DTCM_START = DEFINED (DTCM_START)?DTCM_START:0x0
                0x00000000                        DTCM_LENGTH = DEFINED (DTCM_LENGTH)?DTCM_LENGTH:0x0
                0x00000000                        RAM_NS_BUFFER_BLOCK_LENGTH = DEFINED (RAM_NS_BUFFER_LENGTH)?ALIGN (RAM_NS_BUFFER_LENGTH, 0x2000):0x0
                0x00000000                        RAM_NS_BUFFER_LENGTH = DEFINED (RAM_NS_BUFFER_LENGTH)?RAM_NS_BUFFER_LENGTH:0x0
                0x20010000                        RAM_NS_BUFFER_START = ((RAM_START + RAM_LENGTH) - RAM_NS_BUFFER_LENGTH)
                0x20010000                        RAM_NS_BUFFER_BLOCK_START = ((RAM_START + RAM_LENGTH) - RAM_NS_BUFFER_BLOCK_LENGTH)
                0x0100a180                        OPTION_SETTING_START_NS = DEFINED (PROJECT_NONSECURE)?OPTION_SETTING_START:(OPTION_SETTING_START + 0x80)
                0x00000001                        __bl_FSP_BOOTABLE_IMAGE = 0x1
                0x00000001                        __bln_FSP_BOOTABLE_IMAGE = 0x1
                0x00000001                        PROJECT_SECURE_OR_FLAT = (((! (DEFINED (PROJECT_NONSECURE)) || DEFINED (PROJECT_SECURE)) && OPTION_SETTING_LENGTH) && ! (DEFINED (FSP_BOOTABLE_IMAGE)))
                0x00000000                        USE_OPTION_SETTING_NS = (DEFINED (PROJECT_NONSECURE) && ! (DEFINED (FSP_BOOTABLE_IMAGE)))
                0x00000000                        __bl_FLASH_IMAGE_START = ! (DEFINED (FLASH_BOOTLOADER_LENGTH))?0x0:(FLASH_APPLICATION_IMAGE_NUMBER == 0x1)?((FLASH_START + FLASH_BOOTLOADER_LENGTH) + FLASH_BOOTLOADER_HEADER_LENGTH):(DEFINED (BOOTLOADER_SECONDARY_USE_QSPI) || DEFINED (BOOTLOADER_SECONDARY_USE_OSPI_B))?(((FLASH_START + FLASH_BOOTLOADER_LENGTH) + FLASH_BOOTLOADER_SCRATCH_LENGTH) + FLASH_BOOTLOADER_HEADER_LENGTH):((((FLASH_START + FLASH_BOOTLOADER_LENGTH) + FLASH_BOOTLOADER_SCRATCH_LENGTH) + FLASH_APPLICATION_S_LENGTH) + FLASH_BOOTLOADER_HEADER_LENGTH)
                0x00000000                        __bl_FLASH_IMAGE_LENGTH = ! (DEFINED (FLASH_BOOTLOADER_LENGTH))?0x0:(FLASH_APPLICATION_S_LENGTH - FLASH_BOOTLOADER_HEADER_LENGTH)
                0x00000000                        __bl_FLASH_IMAGE_END = (__bl_FLASH_IMAGE_START + __bl_FLASH_IMAGE_LENGTH)
                0x00000000                        __bl_XIP_SECONDARY_FLASH_IMAGE_START = ! (DEFINED (FLASH_BOOTLOADER_LENGTH))?0x0:(((FLASH_START + FLASH_BOOTLOADER_LENGTH) + FLASH_APPLICATION_S_LENGTH) + FLASH_BOOTLOADER_HEADER_LENGTH)
                0x00000000                        __bl_XIP_SECONDARY_FLASH_IMAGE_END = (__bl_XIP_SECONDARY_FLASH_IMAGE_START + __bl_FLASH_IMAGE_LENGTH)
                0x00000000                        __bl_FLASH_NS_START = ! (DEFINED (FLASH_BOOTLOADER_LENGTH))?0x0:(FLASH_APPLICATION_NS_LENGTH == 0x0)?__bl_FLASH_IMAGE_END:((__bl_FLASH_IMAGE_START - FLASH_BOOTLOADER_HEADER_LENGTH) + FLASH_APPLICATION_S_LENGTH)
                0x00000000                        __bl_FLASH_NSC_START = ! (DEFINED (FLASH_BOOTLOADER_LENGTH))?0x0:(FLASH_APPLICATION_NS_LENGTH == 0x0)?__bl_FLASH_IMAGE_END:(__bl_FLASH_IMAGE_END - FLASH_APPLICATION_NSC_LENGTH)
                0x00000000                        __bl_RAM_NS_START = ! (DEFINED (FLASH_BOOTLOADER_LENGTH))?0x0:(FLASH_APPLICATION_NS_LENGTH == 0x0)?(RAM_START + RAM_LENGTH):((RAM_START + RAM_LENGTH) - RAM_APPLICATION_NS_LENGTH)
                0x00000000                        __bl_RAM_NSC_START = ! (DEFINED (FLASH_BOOTLOADER_LENGTH))?0x0:(FLASH_APPLICATION_NS_LENGTH == 0x0)?(RAM_START + RAM_LENGTH):(__bl_RAM_NS_START - RAM_APPLICATION_NSC_LENGTH)
                0x00000000                        __bl_FLASH_NS_IMAGE_START = ! (DEFINED (FLASH_BOOTLOADER_LENGTH))?0x0:(FLASH_APPLICATION_NS_LENGTH == 0x0)?__bl_FLASH_IMAGE_END:(__bl_FLASH_NS_START + FLASH_BOOTLOADER_HEADER_LENGTH_2)
                0x00000000                        __bln_FLASH_IMAGE_START = (__bl_FLASH_NS_IMAGE_START | ! (DEFINED (NS_OFFSET_START))?0x0:NS_OFFSET_START)
                0x00000000                        __bln_FLASH_IMAGE_LENGTH = ! (DEFINED (FLASH_BOOTLOADER_LENGTH))?0x0:(FLASH_APPLICATION_NS_LENGTH == 0x0)?__bl_FLASH_IMAGE_END:(FLASH_APPLICATION_NS_LENGTH - FLASH_BOOTLOADER_HEADER_LENGTH_2)
                0x00000000                        XIP_SECONDARY_SLOT_IMAGE = DEFINED (XIP_SECONDARY_SLOT_IMAGE)?XIP_SECONDARY_SLOT_IMAGE:0x0
                0x00000000                        FLASH_ORIGIN = ! (DEFINED (FLASH_IMAGE_START))?FLASH_START:(XIP_SECONDARY_SLOT_IMAGE == 0x1)?XIP_SECONDARY_FLASH_IMAGE_START:FLASH_IMAGE_START
                0x00080000                        LIMITED_FLASH_LENGTH = DEFINED (FLASH_IMAGE_LENGTH)?FLASH_IMAGE_LENGTH:DEFINED (FLASH_BOOTLOADER_LENGTH)?FLASH_BOOTLOADER_LENGTH:FLASH_LENGTH
                0x00000034                        OPTION_SETTING_SAS_SIZE = 0x34
                0x000000cc                        OPTION_SETTING_SAS_LENGTH = ! (DEFINED (OPTION_SETTING_LENGTH))?0x0:(OPTION_SETTING_LENGTH == 0x0)?0x0:(OPTION_SETTING_LENGTH - OPTION_SETTING_SAS_SIZE)
START GROUP
LOAD C:/Program Files (x86)/Arm GNU Toolchain arm-none-eabi/13.3 rel1/bin/../lib/gcc/arm-none-eabi/13.3.1/thumb/v8-m.main+fp/hard\libgcc.a
LOAD C:/Program Files (x86)/Arm GNU Toolchain arm-none-eabi/13.3 rel1/bin/../lib/gcc/arm-none-eabi/13.3.1/thumb/v8-m.main+fp/hard\libc.a
LOAD C:/Program Files (x86)/Arm GNU Toolchain arm-none-eabi/13.3 rel1/bin/../lib/gcc/arm-none-eabi/13.3.1/thumb/v8-m.main+fp/hard\libm.a
END GROUP

.text           0x00000000     0x9914
                0x00000000                        __tz_FLASH_S = ABSOLUTE (FLASH_START)
                0x00000000                        __ROM_Start = .
 *(.fixed_vectors*)
 .fixed_vectors
                0x00000000       0x40 ./ra/fsp/src/bsp/cmsis/Device/RENESAS/Source/startup.o
                0x00000000                __Vectors
 *(.application_vectors*)
 .application_vectors
                0x00000040      0x180 ./ra_gen/vector_data.o
                0x00000040                g_vector_table
                0x000001c0                        __Vectors_End = .
 *(.flash_gap*)
                0x000001c0                        . = (OPTION_SETTING_LENGTH > 0x0)?.:(__ROM_Start + 0x400)
 *(.rom_registers*)
 *(.mcuboot_sce9_key*)
 *(.text*)
 .text.deregister_tm_clones
                0x000001c0       0x1c C:/Program Files (x86)/Arm GNU Toolchain arm-none-eabi/13.3 rel1/bin/../lib/gcc/arm-none-eabi/13.3.1/thumb/v8-m.main+fp/hard/crtbegin.o
 .text.register_tm_clones
                0x000001dc       0x28 C:/Program Files (x86)/Arm GNU Toolchain arm-none-eabi/13.3 rel1/bin/../lib/gcc/arm-none-eabi/13.3.1/thumb/v8-m.main+fp/hard/crtbegin.o
 .text.__do_global_dtors_aux
                0x00000204       0x28 C:/Program Files (x86)/Arm GNU Toolchain arm-none-eabi/13.3 rel1/bin/../lib/gcc/arm-none-eabi/13.3.1/thumb/v8-m.main+fp/hard/crtbegin.o
 .text.frame_dummy
                0x0000022c       0x24 C:/Program Files (x86)/Arm GNU Toolchain arm-none-eabi/13.3 rel1/bin/../lib/gcc/arm-none-eabi/13.3.1/thumb/v8-m.main+fp/hard/crtbegin.o
 .text.r_app_rmw_ui_init
                0x00000250      0x3b0 ./src/application/user_interface/ics/r_mtr_ics.o
                0x00000250                r_app_rmw_ui_init
 .text.r_app_rmw_ui_mainloop
                0x00000600       0x34 ./src/application/user_interface/ics/r_mtr_ics.o
                0x00000600                r_app_rmw_ui_mainloop
 .text.r_app_rmw_copy_com_to_buffer
                0x00000634      0x2e0 ./src/application/user_interface/ics/r_mtr_ics.o
                0x00000634                r_app_rmw_copy_com_to_buffer
 .text.r_app_rmw_interrupt_handler
                0x00000914       0x3c ./src/application/user_interface/ics/r_mtr_ics.o
                0x00000914                r_app_rmw_interrupt_handler
 .text.R_SYSTEM_MANAGER_Open
                0x00000950        0x4 ./src/application/system_module/system_manager/r_system_manager_api.o
                0x00000950                R_SYSTEM_MANAGER_Open
 .text.R_SYSTEM_MANAGER_MotorStatusGet
                0x00000954        0xc ./src/application/system_module/system_manager/r_system_manager_api.o
                0x00000954                R_SYSTEM_MANAGER_MotorStatusGet
 .text.R_SYSTEM_MANAGER_SystemMode
                0x00000960       0x40 ./src/application/system_module/system_manager/r_system_manager_api.o
                0x00000960                R_SYSTEM_MANAGER_SystemMode
 .text.R_SYSTEM_MANAGER_ParameterUpdate
                0x000009a0      0x198 ./src/application/system_module/system_manager/r_system_manager_api.o
                0x000009a0                R_SYSTEM_MANAGER_ParameterUpdate
 .text.R_SYSTEM_MANAGER_UpdateCommand
                0x00000b38       0x1c ./src/application/system_module/system_manager/r_system_manager_api.o
                0x00000b38                R_SYSTEM_MANAGER_UpdateCommand
 .text.R_SYSTEM_MANAGER_MotorCurrentInterrupt
                0x00000b54        0xc ./src/application/system_module/system_manager/r_system_manager_api.o
                0x00000b54                R_SYSTEM_MANAGER_MotorCurrentInterrupt
 .text.R_SYSTEM_MANAGER_MotorSpeedInterrupt
                0x00000b60        0xc ./src/application/system_module/system_manager/r_system_manager_api.o
                0x00000b60                R_SYSTEM_MANAGER_MotorSpeedInterrupt
 .text.R_SYSTEM_MANAGER_ControlInterrupt
                0x00000b6c        0x4 ./src/application/system_module/system_manager/r_system_manager_api.o
                0x00000b6c                R_SYSTEM_MANAGER_ControlInterrupt
 .text.R_SYSTEM_MANAGER_MotorOverCurrentInterrupt
                0x00000b70        0xc ./src/application/system_module/system_manager/r_system_manager_api.o
                0x00000b70                R_SYSTEM_MANAGER_MotorOverCurrentInterrupt
 .text.motor_speed_max_speed_set
                0x00000b7c       0x14 ./src/application/motor_module/speed/r_motor_speed.o
                0x00000b7c                motor_speed_max_speed_set
 .text.motor_speed_rate_limit_set
                0x00000b90       0x24 ./src/application/motor_module/speed/r_motor_speed.o
                0x00000b90                motor_speed_rate_limit_set
 .text.motor_speed_pi_control
                0x00000bb4       0x14 ./src/application/motor_module/speed/r_motor_speed.o
                0x00000bb4                motor_speed_pi_control
 .text.motor_speed_ref_speed_set
                0x00000bc8       0x5c ./src/application/motor_module/speed/r_motor_speed.o
                0x00000bc8                motor_speed_ref_speed_set
 .text.motor_speed_flux_weakening
                0x00000c24       0x8c ./src/application/motor_module/speed/r_motor_speed.o
                0x00000c24                motor_speed_flux_weakening
 .text.motor_speed_mtpa
                0x00000cb0       0x74 ./src/application/motor_module/speed/r_motor_speed.o
                0x00000cb0                motor_speed_mtpa
 .text.R_MOTOR_SPEED_Open
                0x00000d24      0x148 ./src/application/motor_module/speed/r_motor_speed_api.o
                0x00000d24                R_MOTOR_SPEED_Open
 .text.R_MOTOR_SPEED_Reset
                0x00000e6c       0x4c ./src/application/motor_module/speed/r_motor_speed_api.o
                0x00000e6c                R_MOTOR_SPEED_Reset
 .text.R_MOTOR_SPEED_Run
                0x00000eb8        0x8 ./src/application/motor_module/speed/r_motor_speed_api.o
                0x00000eb8                R_MOTOR_SPEED_Run
 .text.R_MOTOR_SPEED_ParameterSet
                0x00000ec0       0x10 ./src/application/motor_module/speed/r_motor_speed_api.o
                0x00000ec0                R_MOTOR_SPEED_ParameterSet
 .text.R_MOTOR_SPEED_ParameterGet
                0x00000ed0       0x20 ./src/application/motor_module/speed/r_motor_speed_api.o
                0x00000ed0                R_MOTOR_SPEED_ParameterGet
 .text.R_MOTOR_SPEED_ParameterUpdate
                0x00000ef0       0x94 ./src/application/motor_module/speed/r_motor_speed_api.o
                0x00000ef0                R_MOTOR_SPEED_ParameterUpdate
 .text.R_MOTOR_SPEED_SpdRefSet
                0x00000f84       0x14 ./src/application/motor_module/speed/r_motor_speed_api.o
                0x00000f84                R_MOTOR_SPEED_SpdRefSet
 .text.R_MOTOR_SPEED_SpeedCyclic
                0x00000f98       0xfc ./src/application/motor_module/speed/r_motor_speed_api.o
                0x00000f98                R_MOTOR_SPEED_SpeedCyclic
 .text.R_MOTOR_SPEED_ControlParamSet
                0x00001094       0x18 ./src/application/motor_module/speed/r_motor_speed_api.o
                0x00001094                R_MOTOR_SPEED_ControlParamSet
 .text.R_MOTOR_SPEED_RefstateSet
                0x000010ac        0x4 ./src/application/motor_module/speed/r_motor_speed_api.o
                0x000010ac                R_MOTOR_SPEED_RefstateSet
 .text.R_MOTOR_SPEED_ExtObserverParameterUpdate
                0x000010b0       0x30 ./src/application/motor_module/speed/r_motor_speed_api.o
                0x000010b0                R_MOTOR_SPEED_ExtObserverParameterUpdate
 .text.motor_speed_mtpa_init
                0x000010e0        0x4 ./src/application/motor_module/speed/r_motor_speed_mtpa.o
                0x000010e0                motor_speed_mtpa_init
 .text.motor_speed_mtpa_wekn_judge
                0x000010e4       0x28 ./src/application/motor_module/speed/r_motor_speed_mtpa.o
                0x000010e4                motor_speed_mtpa_wekn_judge
 .text.motor_speed_mtpa_run
                0x0000110c       0x58 ./src/application/motor_module/speed/r_motor_speed_mtpa.o
                0x0000110c                motor_speed_mtpa_run
 .text.motor_speed_mtpa_motor_param_set
                0x00001164        0x4 ./src/application/motor_module/speed/r_motor_speed_mtpa.o
                0x00001164                motor_speed_mtpa_motor_param_set
 .text.motor_speed_pi_gain_calc
                0x00001168       0x54 ./src/application/motor_module/speed/r_motor_speed_pi_gain_calc.o
                0x00001168                motor_speed_pi_gain_calc
 .text.motor_sensorless_vector_act_active
                0x000011bc       0x54 ./src/application/motor_module/sensorless_vector/r_motor_sensorless_vector_action.o
                0x000011bc                motor_sensorless_vector_act_active
 .text.motor_sensorless_vector_act_inactive
                0x00001210       0x2c ./src/application/motor_module/sensorless_vector/r_motor_sensorless_vector_action.o
                0x00001210                motor_sensorless_vector_act_inactive
 .text.motor_sensorless_vector_act_nowork
                0x0000123c        0x4 ./src/application/motor_module/sensorless_vector/r_motor_sensorless_vector_action.o
                0x0000123c                motor_sensorless_vector_act_nowork
 .text.motor_sensorless_vector_act_reset
                0x00001240        0xc ./src/application/motor_module/sensorless_vector/r_motor_sensorless_vector_action.o
                0x00001240                motor_sensorless_vector_act_reset
 .text.motor_sensorless_vector_act_error
                0x0000124c       0x10 ./src/application/motor_module/sensorless_vector/r_motor_sensorless_vector_action.o
                0x0000124c                motor_sensorless_vector_act_error
 .text.R_MOTOR_SENSORLESS_VECTOR_Open
                0x0000125c       0x54 ./src/application/motor_module/sensorless_vector/r_motor_sensorless_vector_api.o
                0x0000125c                R_MOTOR_SENSORLESS_VECTOR_Open
 .text.R_MOTOR_SENSORLESS_VECTOR_ParameterUpdate
                0x000012b0       0xd8 ./src/application/motor_module/sensorless_vector/r_motor_sensorless_vector_api.o
                0x000012b0                R_MOTOR_SENSORLESS_VECTOR_ParameterUpdate
 .text.R_MOTOR_SENSORLESS_VECTOR_MotorStart
                0x00001388        0xc ./src/application/motor_module/sensorless_vector/r_motor_sensorless_vector_api.o
                0x00001388                R_MOTOR_SENSORLESS_VECTOR_MotorStart
 .text.R_MOTOR_SENSORLESS_VECTOR_MotorStop
                0x00001394        0xc ./src/application/motor_module/sensorless_vector/r_motor_sensorless_vector_api.o
                0x00001394                R_MOTOR_SENSORLESS_VECTOR_MotorStop
 .text.R_MOTOR_SENSORLESS_VECTOR_MotorReset
                0x000013a0        0xc ./src/application/motor_module/sensorless_vector/r_motor_sensorless_vector_api.o
                0x000013a0                R_MOTOR_SENSORLESS_VECTOR_MotorReset
 .text.R_MOTOR_SENSORLESS_VECTOR_SpeedSet
                0x000013ac        0x8 ./src/application/motor_module/sensorless_vector/r_motor_sensorless_vector_api.o
                0x000013ac                R_MOTOR_SENSORLESS_VECTOR_SpeedSet
 .text.R_MOTOR_SENSORLESS_VECTOR_StatusGet
                0x000013b4        0x8 ./src/application/motor_module/sensorless_vector/r_motor_sensorless_vector_api.o
                0x000013b4                R_MOTOR_SENSORLESS_VECTOR_StatusGet
 .text.R_MOTOR_SENSORLESS_VECTOR_CtrlTypeSet
                0x000013bc       0x18 ./src/application/motor_module/sensorless_vector/r_motor_sensorless_vector_api.o
                0x000013bc                R_MOTOR_SENSORLESS_VECTOR_CtrlTypeSet
 .text.R_MOTOR_SENSORLESS_VECTOR_SpeedInterrupt
                0x000013d4       0xac ./src/application/motor_module/sensorless_vector/r_motor_sensorless_vector_api.o
                0x000013d4                R_MOTOR_SENSORLESS_VECTOR_SpeedInterrupt
 .text.R_MOTOR_SENSORLESS_VECTOR_CurrentInterrupt
                0x00001480      0x20c ./src/application/motor_module/sensorless_vector/r_motor_sensorless_vector_api.o
                0x00001480                R_MOTOR_SENSORLESS_VECTOR_CurrentInterrupt
 .text.R_MOTOR_SENSORLESS_VECTOR_OverCurrentInterrupt
                0x0000168c        0x8 ./src/application/motor_module/sensorless_vector/r_motor_sensorless_vector_api.o
                0x0000168c                R_MOTOR_SENSORLESS_VECTOR_OverCurrentInterrupt
 .text.motor_sensorless_vector_reset
                0x00001694       0x70 ./src/application/motor_module/sensorless_vector/r_motor_sensorless_vector_manager.o
                0x00001694                motor_sensorless_vector_reset
 .text.motor_sensorless_vector_default_init
                0x00001704      0x258 ./src/application/motor_module/sensorless_vector/r_motor_sensorless_vector_manager.o
                0x00001704                motor_sensorless_vector_default_init
 .text.motor_sensorless_vector_decide_direction
                0x0000195c       0x1c ./src/application/motor_module/sensorless_vector/r_motor_sensorless_vector_manager.o
                0x0000195c                motor_sensorless_vector_decide_direction
 .text.motor_sensorless_vector_error_process
                0x00001978       0x18 ./src/application/motor_module/sensorless_vector/r_motor_sensorless_vector_manager.o
                0x00001978                motor_sensorless_vector_error_process
 .text.motor_sensorless_vector_speed_status_select
                0x00001990       0x18 ./src/application/motor_module/sensorless_vector/r_motor_sensorless_vector_manager.o
                0x00001990                motor_sensorless_vector_speed_status_select
 .text.motor_sensorless_vector_nominal_current_set
                0x000019a8       0x30 ./src/application/motor_module/sensorless_vector/r_motor_sensorless_vector_manager.o
                0x000019a8                motor_sensorless_vector_nominal_current_set
 .text.motor_sensorless_vector_module_activate
                0x000019d8       0x20 ./src/application/motor_module/sensorless_vector/r_motor_sensorless_vector_manager.o
                0x000019d8                motor_sensorless_vector_module_activate
 .text.motor_sensorless_phase_err_lpf_setup
                0x000019f8        0x8 ./src/application/motor_module/sensorless_vector/r_motor_sensorless_vector_manager.o
                0x000019f8                motor_sensorless_phase_err_lpf_setup
 .text.motor_sensorless_vector_estmode_status_select
                0x00001a00      0x2c0 ./src/application/motor_module/sensorless_vector/r_motor_sensorless_vector_manager.o
                0x00001a00                motor_sensorless_vector_estmode_status_select
 .text.motor_sensorless_vector_error_check
                0x00001cc0       0xe4 ./src/application/motor_module/sensorless_vector/r_motor_sensorless_vector_protection.o
                0x00001cc0                motor_sensorless_vector_error_check
 .text.motor_sensorless_vector_statemachine_init
                0x00001da4        0xc ./src/application/motor_module/sensorless_vector/r_motor_sensorless_vector_statemachine.o
                0x00001da4                motor_sensorless_vector_statemachine_init
 .text.motor_sensorless_vector_statemachine_event
                0x00001db0       0x78 ./src/application/motor_module/sensorless_vector/r_motor_sensorless_vector_statemachine.o
                0x00001db0                motor_sensorless_vector_statemachine_event
 .text.motor_sensorless_vector_statemachine_status_get
                0x00001e28        0x4 ./src/application/motor_module/sensorless_vector/r_motor_sensorless_vector_statemachine.o
                0x00001e28                motor_sensorless_vector_statemachine_status_get
 .text.motor_filter_lpff
                0x00001e2c       0x10 ./src/application/motor_module/general/r_motor_filter.o
                0x00001e2c                motor_filter_lpff
 .text.motor_filter_limitf
                0x00001e3c       0x28 ./src/application/motor_module/general/r_motor_filter.o
                0x00001e3c                motor_filter_limitf
 .text.motor_filter_lower_limitf
                0x00001e64       0x10 ./src/application/motor_module/general/r_motor_filter.o
                0x00001e64                motor_filter_lower_limitf
 .text.motor_filter_limitf_abs
                0x00001e74       0x24 ./src/application/motor_module/general/r_motor_filter.o
                0x00001e74                motor_filter_limitf_abs
 .text.motor_filter_first_order_lpff_init
                0x00001e98       0x10 ./src/application/motor_module/general/r_motor_filter.o
                0x00001e98                motor_filter_first_order_lpff_init
 .text.motor_filter_first_order_lpff_reset
                0x00001ea8        0x8 ./src/application/motor_module/general/r_motor_filter.o
                0x00001ea8                motor_filter_first_order_lpff_reset
 .text.motor_filter_first_order_lpff_gain_calc
                0x00001eb0       0x34 ./src/application/motor_module/general/r_motor_filter.o
                0x00001eb0                motor_filter_first_order_lpff_gain_calc
 .text.motor_filter_first_order_lpff
                0x00001ee4       0x2c ./src/application/motor_module/general/r_motor_filter.o
                0x00001ee4                motor_filter_first_order_lpff
 .text.motor_pi_ctrl
                0x00001f10       0x48 ./src/application/motor_module/general/r_motor_pi_control.o
                0x00001f10                motor_pi_ctrl
 .text.motor_pi_ctrl_reset
                0x00001f58        0x8 ./src/application/motor_module/general/r_motor_pi_control.o
                0x00001f58                motor_pi_ctrl_reset
 .text.motor_pi_ctrl_integral_limit_set
                0x00001f60        0x8 ./src/application/motor_module/general/r_motor_pi_control.o
                0x00001f60                motor_pi_ctrl_integral_limit_set
 .text.R_MOTOR_DRIVER_Open
                0x00001f68       0x14 ./src/application/motor_module/driver/r_motor_driver.o
                0x00001f68                R_MOTOR_DRIVER_Open
 .text.R_MOTOR_DRIVER_ParameterUpdate
                0x00001f7c       0x50 ./src/application/motor_module/driver/r_motor_driver.o
                0x00001f7c                R_MOTOR_DRIVER_ParameterUpdate
 .text.R_MOTOR_DRIVER_BldcAnalogGet
                0x00001fcc       0xf0 ./src/application/motor_module/driver/r_motor_driver.o
                0x00001fcc                R_MOTOR_DRIVER_BldcAnalogGet
 .text.R_MOTOR_DRIVER_BldcDutySet
                0x000020bc       0x5c ./src/application/motor_module/driver/r_motor_driver.o
                0x000020bc                R_MOTOR_DRIVER_BldcDutySet
 .text.R_MOTOR_DRIVER_BldcZeroDutySet
                0x00002118        0x4 ./src/application/motor_module/driver/r_motor_driver.o
                0x00002118                R_MOTOR_DRIVER_BldcZeroDutySet
 .text.R_MOTOR_DRIVER_BldcCompareDutySet
                0x0000211c        0x4 ./src/application/motor_module/driver/r_motor_driver.o
                0x0000211c                R_MOTOR_DRIVER_BldcCompareDutySet
 .text.R_MOTOR_DRIVER_PWMControlStop
                0x00002120        0x4 ./src/application/motor_module/driver/r_motor_driver.o
                0x00002120                R_MOTOR_DRIVER_PWMControlStop
 .text.R_MOTOR_DRIVER_PWMControlStart
                0x00002124        0x4 ./src/application/motor_module/driver/r_motor_driver.o
                0x00002124                R_MOTOR_DRIVER_PWMControlStart
 .text.R_Config_MOTOR_StartTimerCtrl
                0x00002128       0x80 ./src/application/motor_module/driver/r_motor_driver_fsp.o
                0x00002128                R_Config_MOTOR_StartTimerCtrl
 .text.R_Config_MOTOR_StopTimerCtrl
                0x000021a8       0x78 ./src/application/motor_module/driver/r_motor_driver_fsp.o
                0x000021a8                R_Config_MOTOR_StopTimerCtrl
 .text.R_Config_MOTOR_UpdDuty
                0x00002220       0x20 ./src/application/motor_module/driver/r_motor_driver_fsp.o
                0x00002220                R_Config_MOTOR_UpdDuty
 .text.R_Config_MOTOR_UpdZeroDuty
                0x00002240       0x7c ./src/application/motor_module/driver/r_motor_driver_fsp.o
                0x00002240                R_Config_MOTOR_UpdZeroDuty
 .text.R_Config_MOTOR_UpdCompareDuty
                0x000022bc       0x44 ./src/application/motor_module/driver/r_motor_driver_fsp.o
                0x000022bc                R_Config_MOTOR_UpdCompareDuty
 .text.R_Config_MOTOR_AdcGetConvVal
                0x00002300       0x8c ./src/application/motor_module/driver/r_motor_driver_fsp.o
                0x00002300                R_Config_MOTOR_AdcGetConvVal
 .text.R_Config_MC_PWM_PFC_DUTY_StartTimerCtrl
                0x0000238c       0x28 ./src/application/motor_module/driver/r_motor_driver_fsp.o
                0x0000238c                R_Config_MC_PWM_PFC_DUTY_StartTimerCtrl
 .text.R_Config_MC_PWM_PFC_DUTY_UpdDuty
                0x000023b4       0x78 ./src/application/motor_module/driver/r_motor_driver_fsp.o
                0x000023b4                R_Config_MC_PWM_PFC_DUTY_UpdDuty
 .text.motor_current_decoupling
                0x0000242c       0x58 ./src/application/motor_module/current/r_motor_current.o
                0x0000242c                motor_current_decoupling
 .text.motor_current_pi_control
                0x00002484       0x40 ./src/application/motor_module/current/r_motor_current.o
                0x00002484                motor_current_pi_control
 .text.motor_current_rotor_angle_init
                0x000024c4       0x10 ./src/application/motor_module/current/r_motor_current.o
                0x000024c4                motor_current_rotor_angle_init
 .text.motor_current_rotor_angle_reset
                0x000024d4       0x10 ./src/application/motor_module/current/r_motor_current.o
                0x000024d4                motor_current_rotor_angle_reset
 .text.motor_current_rotor_angle_update
                0x000024e4       0x30 ./src/application/motor_module/current/r_motor_current.o
                0x000024e4                motor_current_rotor_angle_update
 .text.motor_current_transform_uvw_dq_abs
                0x00002514       0x5c ./src/application/motor_module/current/r_motor_current.o
                0x00002514                motor_current_transform_uvw_dq_abs
 .text.motor_current_transform_dq_uvw_abs
                0x00002570       0x84 ./src/application/motor_module/current/r_motor_current.o
                0x00002570                motor_current_transform_dq_uvw_abs
 .text.motor_current_volt_limit
                0x000025f4       0x74 ./src/application/motor_module/current/r_motor_current.o
                0x000025f4                motor_current_volt_limit
 .text.motor_current_reference_iq_set
                0x00002668       0x1c ./src/application/motor_module/current/r_motor_current.o
                0x00002668                motor_current_reference_iq_set
 .text.motor_current_reference_id_set
                0x00002684       0x18 ./src/application/motor_module/current/r_motor_current.o
                0x00002684                motor_current_reference_id_set
 .text.motor_current_angle_speed_detect
                0x0000269c      0x204 ./src/application/motor_module/current/r_motor_current.o
                0x0000269c                motor_current_angle_speed_detect
 .text.motor_current_angle_get
                0x000028a0        0x8 ./src/application/motor_module/current/r_motor_current.o
                0x000028a0                motor_current_angle_get
 .text.motor_current_control_smpldly_comp
                0x000028a8       0x3c ./src/application/motor_module/current/r_motor_current.o
                0x000028a8                motor_current_control_smpldly_comp
 .text.R_MOTOR_CURRENT_Reset
                0x000028e4       0xb8 ./src/application/motor_module/current/r_motor_current_api.o
                0x000028e4                R_MOTOR_CURRENT_Reset
 .text.R_MOTOR_CURRENT_Open
                0x0000299c      0x1e4 ./src/application/motor_module/current/r_motor_current_api.o
                0x0000299c                R_MOTOR_CURRENT_Open
 .text.R_MOTOR_CURRENT_Run
                0x00002b80        0x8 ./src/application/motor_module/current/r_motor_current_api.o
                0x00002b80                R_MOTOR_CURRENT_Run
 .text.R_MOTOR_CURRENT_ParameterSet
                0x00002b88       0x30 ./src/application/motor_module/current/r_motor_current_api.o
                0x00002b88                R_MOTOR_CURRENT_ParameterSet
 .text.R_MOTOR_CURRENT_ParameterGet
                0x00002bb8       0x60 ./src/application/motor_module/current/r_motor_current_api.o
                0x00002bb8                R_MOTOR_CURRENT_ParameterGet
 .text.R_MOTOR_CURRENT_ParameterUpdate
                0x00002c18       0xfc ./src/application/motor_module/current/r_motor_current_api.o
                0x00002c18                R_MOTOR_CURRENT_ParameterUpdate
 .text.R_MOTOR_CURRENT_CurrentCyclic
                0x00002d14      0x21c ./src/application/motor_module/current/r_motor_current_api.o
                0x00002d14                R_MOTOR_CURRENT_CurrentCyclic
 .text.R_MOTOR_CURRENT_OffsetCalibration
                0x00002f30       0x58 ./src/application/motor_module/current/r_motor_current_api.o
                0x00002f30                R_MOTOR_CURRENT_OffsetCalibration
 .text.R_MOTOR_CURRENT_CurrentOffsetRemove
                0x00002f88       0x24 ./src/application/motor_module/current/r_motor_current_api.o
                0x00002f88                R_MOTOR_CURRENT_CurrentOffsetRemove
 .text.R_MOTOR_CURRENT_VoltErrCompParamSet
                0x00002fac        0x8 ./src/application/motor_module/current/r_motor_current_api.o
                0x00002fac                R_MOTOR_CURRENT_VoltErrCompParamSet
 .text.R_MOTOR_CURRENT_BEMFObserverParameterUpdate
                0x00002fb4       0x70 ./src/application/motor_module/current/r_motor_current_api.o
                0x00002fb4                R_MOTOR_CURRENT_BEMFObserverParameterUpdate
 .text.R_MOTOR_CURRENT_UpdateAngleNSpole
                0x00003024       0x6c ./src/application/motor_module/current/r_motor_current_api.o
                0x00003024                R_MOTOR_CURRENT_UpdateAngleNSpole
 .text.R_MOTOR_CURRENT_PLLSpeedSet
                0x00003090       0x10 ./src/application/motor_module/current/r_motor_current_api.o
                0x00003090                R_MOTOR_CURRENT_PLLSpeedSet
 .text.R_MOTOR_CURRENT_RotorAngleSet
                0x000030a0        0x8 ./src/application/motor_module/current/r_motor_current_api.o
                0x000030a0                R_MOTOR_CURRENT_RotorAngleSet
 .text.R_MOTOR_CURRENT_BEMFObserverParameterSet
                0x000030a8       0x10 ./src/application/motor_module/current/r_motor_current_api.o
                0x000030a8                R_MOTOR_CURRENT_BEMFObserverParameterSet
 .text.motor_current_mod_init
                0x000030b8       0x34 ./src/application/motor_module/current/r_motor_current_modulation.o
                0x000030b8                motor_current_mod_init
 .text.motor_current_mod_start
                0x000030ec      0x114 ./src/application/motor_module/current/r_motor_current_modulation.o
                0x000030ec                motor_current_mod_start
 .text.motor_current_mod_vdc_set
                0x00003200       0x1c ./src/application/motor_module/current/r_motor_current_modulation.o
                0x00003200                motor_current_mod_vdc_set
 .text.motor_current_mod_max_duty_set
                0x0000321c       0x38 ./src/application/motor_module/current/r_motor_current_modulation.o
                0x0000321c                motor_current_mod_max_duty_set
 .text.motor_current_mod_min_duty_set
                0x00003254       0x28 ./src/application/motor_module/current/r_motor_current_modulation.o
                0x00003254                motor_current_mod_min_duty_set
 .text.motor_current_mod_volt_err_ratio_set
                0x0000327c        0x8 ./src/application/motor_module/current/r_motor_current_modulation.o
                0x0000327c                motor_current_mod_volt_err_ratio_set
 .text.motor_current_mod_max_va_get
                0x00003284       0x3c ./src/application/motor_module/current/r_motor_current_modulation.o
                0x00003284                motor_current_mod_max_va_get
 .text.motor_current_pi_gain_calc
                0x000032c0       0x58 ./src/application/motor_module/current/r_motor_current_pi_gain_calc.o
                0x000032c0                motor_current_pi_gain_calc
 .text.mtr_init
                0x00003318      0x1dc ./src/application/main/mtr_main.o
                0x00003318                mtr_init
 .text.mtr_main
                0x000034f4       0x70 ./src/application/main/mtr_main.o
                0x000034f4                mtr_main
 .text.callback_gpt_adc_cyclic
                0x00003564       0x1c ./src/application/main/mtr_main.o
                0x00003564                callback_gpt_adc_cyclic
 .text.pfc_pwm_cyclic
                0x00003580        0xc ./src/application/main/mtr_main.o
                0x00003580                pfc_pwm_cyclic
 .text.callback_agt_motor_speed_cyclic
                0x0000358c        0x8 ./src/application/main/mtr_main.o
                0x0000358c                callback_agt_motor_speed_cyclic
 .text.callback_agt_system_manager_cyclic
                0x00003594        0x8 ./src/application/main/mtr_main.o
                0x00003594                callback_agt_system_manager_cyclic
 .text.callback_poe_overcurrent
                0x0000359c       0x40 ./src/application/main/mtr_main.o
                0x0000359c                callback_poe_overcurrent
 .text.hal_entry
                0x000035dc        0xc ./src/hal_entry.o
                0x000035dc                hal_entry
 .text.R_BSP_WarmStart
                0x000035e8       0x18 ./src/hal_entry.o
                0x000035e8                R_BSP_WarmStart
 .text.startup.main
                0x00003600        0xc ./ra_gen/main.o
                0x00003600                main
 .text.R_POEG_Open
                0x0000360c       0xc4 ./ra/fsp/src/r_poeg/r_poeg.o
                0x0000360c                R_POEG_Open
 .text.R_POEG_OutputDisable
                0x000036d0       0x10 ./ra/fsp/src/r_poeg/r_poeg.o
                0x000036d0                R_POEG_OutputDisable
 .text.R_POEG_Reset
                0x000036e0       0x14 ./ra/fsp/src/r_poeg/r_poeg.o
                0x000036e0                R_POEG_Reset
 .text.R_POEG_StatusGet
                0x000036f4       0x14 ./ra/fsp/src/r_poeg/r_poeg.o
                0x000036f4                R_POEG_StatusGet
 .text.R_POEG_CallbackSet
                0x00003708       0x10 ./ra/fsp/src/r_poeg/r_poeg.o
                0x00003708                R_POEG_CallbackSet
 .text.R_POEG_Close
                0x00003718       0x50 ./ra/fsp/src/r_poeg/r_poeg.o
                0x00003718                R_POEG_Close
 .text.poeg_event_isr
                0x00003768       0x54 ./ra/fsp/src/r_poeg/r_poeg.o
                0x00003768                poeg_event_isr
 .text.R_IOPORT_Close
                0x000037bc        0xc ./ra/fsp/src/r_ioport/r_ioport.o
                0x000037bc                R_IOPORT_Close
 .text.R_IOPORT_PinRead
                0x000037c8       0x24 ./ra/fsp/src/r_ioport/r_ioport.o
                0x000037c8                R_IOPORT_PinRead
 .text.R_IOPORT_PortRead
                0x000037ec       0x14 ./ra/fsp/src/r_ioport/r_ioport.o
                0x000037ec                R_IOPORT_PortRead
 .text.R_IOPORT_PortWrite
                0x00003800       0x1c ./ra/fsp/src/r_ioport/r_ioport.o
                0x00003800                R_IOPORT_PortWrite
 .text.R_IOPORT_PinWrite
                0x0000381c       0x20 ./ra/fsp/src/r_ioport/r_ioport.o
                0x0000381c                R_IOPORT_PinWrite
 .text.R_IOPORT_PortDirectionSet
                0x0000383c       0x2c ./ra/fsp/src/r_ioport/r_ioport.o
                0x0000383c                R_IOPORT_PortDirectionSet
 .text.R_IOPORT_PortEventInputRead
                0x00003868       0x18 ./ra/fsp/src/r_ioport/r_ioport.o
                0x00003868                R_IOPORT_PortEventInputRead
 .text.R_IOPORT_PinEventInputRead
                0x00003880       0x34 ./ra/fsp/src/r_ioport/r_ioport.o
                0x00003880                R_IOPORT_PinEventInputRead
 .text.R_IOPORT_PortEventOutputWrite
                0x000038b4       0x1c ./ra/fsp/src/r_ioport/r_ioport.o
                0x000038b4                R_IOPORT_PortEventOutputWrite
 .text.R_IOPORT_PinEventOutputWrite
                0x000038d0       0x34 ./ra/fsp/src/r_ioport/r_ioport.o
                0x000038d0                R_IOPORT_PinEventOutputWrite
 .text.r_ioport_pins_config
                0x00003904       0xa8 ./ra/fsp/src/r_ioport/r_ioport.o
 .text.R_IOPORT_Open
                0x000039ac       0x14 ./ra/fsp/src/r_ioport/r_ioport.o
                0x000039ac                R_IOPORT_Open
 .text.R_IOPORT_PinsCfg
                0x000039c0        0xc ./ra/fsp/src/r_ioport/r_ioport.o
                0x000039c0                R_IOPORT_PinsCfg
 .text.R_IOPORT_PinCfg
                0x000039cc       0x90 ./ra/fsp/src/r_ioport/r_ioport.o
                0x000039cc                R_IOPORT_PinCfg
 .text.R_GPT_THREE_PHASE_Stop
                0x00003a5c        0xc ./ra/fsp/src/r_gpt_three_phase/r_gpt_three_phase.o
                0x00003a5c                R_GPT_THREE_PHASE_Stop
 .text.R_GPT_THREE_PHASE_Start
                0x00003a68        0xc ./ra/fsp/src/r_gpt_three_phase/r_gpt_three_phase.o
                0x00003a68                R_GPT_THREE_PHASE_Start
 .text.R_GPT_THREE_PHASE_Reset
                0x00003a74        0xc ./ra/fsp/src/r_gpt_three_phase/r_gpt_three_phase.o
                0x00003a74                R_GPT_THREE_PHASE_Reset
 .text.R_GPT_THREE_PHASE_DutyCycleSet
                0x00003a80       0x3c ./ra/fsp/src/r_gpt_three_phase/r_gpt_three_phase.o
                0x00003a80                R_GPT_THREE_PHASE_DutyCycleSet
 .text.R_GPT_THREE_PHASE_Open
                0x00003abc       0x50 ./ra/fsp/src/r_gpt_three_phase/r_gpt_three_phase.o
                0x00003abc                R_GPT_THREE_PHASE_Open
 .text.R_GPT_Stop
                0x00003b0c        0xc ./ra/fsp/src/r_gpt/r_gpt.o
                0x00003b0c                R_GPT_Stop
 .text.R_GPT_Start
                0x00003b18        0xc ./ra/fsp/src/r_gpt/r_gpt.o
                0x00003b18                R_GPT_Start
 .text.R_GPT_Reset
                0x00003b24        0xc ./ra/fsp/src/r_gpt/r_gpt.o
                0x00003b24                R_GPT_Reset
 .text.R_GPT_Enable
                0x00003b30       0x30 ./ra/fsp/src/r_gpt/r_gpt.o
                0x00003b30                R_GPT_Enable
 .text.R_GPT_Disable
                0x00003b60       0x18 ./ra/fsp/src/r_gpt/r_gpt.o
                0x00003b60                R_GPT_Disable
 .text.R_GPT_PeriodSet
                0x00003b78       0x3c ./ra/fsp/src/r_gpt/r_gpt.o
                0x00003b78                R_GPT_PeriodSet
 .text.R_GPT_CompareMatchSet
                0x00003bb4       0x14 ./ra/fsp/src/r_gpt/r_gpt.o
                0x00003bb4                R_GPT_CompareMatchSet
 .text.R_GPT_StatusGet
                0x00003bc8       0x14 ./ra/fsp/src/r_gpt/r_gpt.o
                0x00003bc8                R_GPT_StatusGet
 .text.R_GPT_CallbackSet
                0x00003bdc       0x10 ./ra/fsp/src/r_gpt/r_gpt.o
                0x00003bdc                R_GPT_CallbackSet
 .text.r_gpt_call_callback
                0x00003bec       0x3c ./ra/fsp/src/r_gpt/r_gpt.o
 .text.R_GPT_InfoGet
                0x00003c28       0x48 ./ra/fsp/src/r_gpt/r_gpt.o
                0x00003c28                R_GPT_InfoGet
 .text.gpt_calculate_duty_cycle.isra.0
                0x00003c70       0x84 ./ra/fsp/src/r_gpt/r_gpt.o
 .text.R_GPT_DutyCycleSet
                0x00003cf4       0xc0 ./ra/fsp/src/r_gpt/r_gpt.o
                0x00003cf4                R_GPT_DutyCycleSet
 .text.r_gpt_enable_irq
                0x00003db4       0x60 ./ra/fsp/src/r_gpt/r_gpt.o
 *fill*         0x00003e14        0x4 ff
 .text.R_GPT_Open
                0x00003e18      0x33c ./ra/fsp/src/r_gpt/r_gpt.o
                0x00003e18                R_GPT_Open
 .text.R_GPT_Close
                0x00004154       0xcc ./ra/fsp/src/r_gpt/r_gpt.o
                0x00004154                R_GPT_Close
 .text.R_GPT_OutputEnable
                0x00004220       0x18 ./ra/fsp/src/r_gpt/r_gpt.o
                0x00004220                R_GPT_OutputEnable
 .text.R_GPT_OutputDisable
                0x00004238       0x18 ./ra/fsp/src/r_gpt/r_gpt.o
                0x00004238                R_GPT_OutputDisable
 .text.gpt_counter_overflow_isr
                0x00004250       0x94 ./ra/fsp/src/r_gpt/r_gpt.o
                0x00004250                gpt_counter_overflow_isr
 .text.R_AGT_Stop
                0x000042e4       0x24 ./ra/fsp/src/r_agt/r_agt.o
                0x000042e4                R_AGT_Stop
 .text.R_AGT_Start
                0x00004308       0x6c ./ra/fsp/src/r_agt/r_agt.o
                0x00004308                R_AGT_Start
 .text.R_AGT_Reset
                0x00004374       0x3c ./ra/fsp/src/r_agt/r_agt.o
                0x00004374                R_AGT_Reset
 .text.R_AGT_Open
                0x000043b0      0x164 ./ra/fsp/src/r_agt/r_agt.o
                0x000043b0                R_AGT_Open
 .text.agt_int_isr
                0x00004514       0x9c ./ra/fsp/src/r_agt/r_agt.o
                0x00004514                agt_int_isr
 .text.R_ADC_B_ScanStart
                0x000045b0       0x18 ./ra/fsp/src/r_adc_b/r_adc_b.o
                0x000045b0                R_ADC_B_ScanStart
 .text.R_ADC_B_StatusGet
                0x000045c8       0x28 ./ra/fsp/src/r_adc_b/r_adc_b.o
                0x000045c8                R_ADC_B_StatusGet
 .text.R_ADC_B_Read
                0x000045f0       0x24 ./ra/fsp/src/r_adc_b/r_adc_b.o
                0x000045f0                R_ADC_B_Read
 .text.R_ADC_B_Open
                0x00004614      0x1f0 ./ra/fsp/src/r_adc_b/r_adc_b.o
                0x00004614                R_ADC_B_Open
 .text.R_ADC_B_ScanCfg
                0x00004804      0x258 ./ra/fsp/src/r_adc_b/r_adc_b.o
                0x00004804                R_ADC_B_ScanCfg
 .text.adc_b_isr_handler
                0x00004a5c       0x94 ./ra/fsp/src/r_adc_b/r_adc_b.o
 .text.R_ADC_B_Calibrate
                0x00004af0       0x6c ./ra/fsp/src/r_adc_b/r_adc_b.o
                0x00004af0                R_ADC_B_Calibrate
 .text.adc_b_calend0_isr
                0x00004b5c       0xc0 ./ra/fsp/src/r_adc_b/r_adc_b.o
                0x00004b5c                adc_b_calend0_isr
 .text.adc_b_calend1_isr
                0x00004c1c       0xc4 ./ra/fsp/src/r_adc_b/r_adc_b.o
                0x00004c1c                adc_b_calend1_isr
 .text.adc_b_adi0_isr
                0x00004ce0       0x3c ./ra/fsp/src/r_adc_b/r_adc_b.o
                0x00004ce0                adc_b_adi0_isr
 .text.adc_b_adi1_isr
                0x00004d1c       0x3c ./ra/fsp/src/r_adc_b/r_adc_b.o
                0x00004d1c                adc_b_adi1_isr
 .text.SystemCoreClockUpdate
                0x00004d58       0x28 ./ra/fsp/src/bsp/mcu/all/bsp_clocks.o
                0x00004d58                SystemCoreClockUpdate
 .text.bsp_clock_init
                0x00004d80      0x110 ./ra/fsp/src/bsp/mcu/all/bsp_clocks.o
                0x00004d80                bsp_clock_init
 .text.bsp_init_internal
                0x00004e90        0x4 ./ra/fsp/src/bsp/mcu/all/bsp_common.o
                0x00004e90                bsp_init_internal
                0x00004e90                bsp_init
 .text.bsp_prv_software_delay_loop
                0x00004e94        0xc ./ra/fsp/src/bsp/mcu/all/bsp_delay.o
                0x00004e94                bsp_prv_software_delay_loop
 .text.R_BSP_SoftwareDelay
                0x00004ea0       0x58 ./ra/fsp/src/bsp/mcu/all/bsp_delay.o
                0x00004ea0                R_BSP_SoftwareDelay
 .text.NMI_Handler
                0x00004ef8       0x3c ./ra/fsp/src/bsp/mcu/all/bsp_group_irq.o
                0x00004ef8                NMI_Handler
 .text.bsp_irq_cfg
                0x00004f34       0xa4 ./ra/fsp/src/bsp/mcu/all/bsp_irq.o
                0x00004f34                bsp_irq_cfg
 .text.R_BSP_RegisterProtectEnable
                0x00004fd8       0x60 ./ra/fsp/src/bsp/mcu/all/bsp_register_protection.o
                0x00004fd8                R_BSP_RegisterProtectEnable
 .text.R_BSP_RegisterProtectDisable
                0x00005038       0x54 ./ra/fsp/src/bsp/mcu/all/bsp_register_protection.o
                0x00005038                R_BSP_RegisterProtectDisable
 .text.Default_Handler
                0x0000508c        0x4 ./ra/fsp/src/bsp/cmsis/Device/RENESAS/Source/startup.o
                0x0000508c                DebugMon_Handler
                0x0000508c                HardFault_Handler
                0x0000508c                SysTick_Handler
                0x0000508c                PendSV_Handler
                0x0000508c                UsageFault_Handler
                0x0000508c                SecureFault_Handler
                0x0000508c                Default_Handler
                0x0000508c                MemManage_Handler
                0x0000508c                SVC_Handler
                0x0000508c                BusFault_Handler
 .text.Reset_Handler
                0x00005090        0xc ./ra/fsp/src/bsp/cmsis/Device/RENESAS/Source/startup.o
                0x00005090                Reset_Handler
 .text.SystemInit
                0x0000509c       0xf8 ./ra/fsp/src/bsp/cmsis/Device/RENESAS/Source/system.o
                0x0000509c                SystemInit
 .text.ics_int_sci_rxi
                0x00005194      0x3d8 C:/Users/a5143778/Documents/MC_Greece/MC_Greece/RA6T2_MCIHV1_IPM_LESS_FOC_WHOLE_PFC_E2S_V100/src/application/user_interface/ics/ICS2_RA6T2.o(ICS2_RA6T2.o)
                0x00005194                ics_int_sci_rxi
 .text.ics2_watchpoint
                0x0000556c      0x2ac C:/Users/a5143778/Documents/MC_Greece/MC_Greece/RA6T2_MCIHV1_IPM_LESS_FOC_WHOLE_PFC_E2S_V100/src/application/user_interface/ics/ICS2_RA6T2.o(ICS2_RA6T2.o)
                0x0000556c                ics2_watchpoint
 .text.ics2_init
                0x00005818       0xb4 C:/Users/a5143778/Documents/MC_Greece/MC_Greece/RA6T2_MCIHV1_IPM_LESS_FOC_WHOLE_PFC_E2S_V100/src/application/user_interface/ics/ICS2_RA6T2.o(ICS2_RA6T2.o)
                0x00005818                ics2_init
 .text.motor_current_bemf_observer_start
                0x000058cc      0x118 C:\Users\a5143778\Documents\MC_Greece\MC_Greece\RA6T2_MCIHV1_IPM_LESS_FOC_WHOLE_PFC_E2S_V100\src\application\motor_module\current\libr_motor_current_bemf_observer.a(r_motor_current_bemf_observer.o)
                0x000058cc                motor_current_bemf_observer_start
 .text.motor_current_bemf_observer_d_calc
                0x000059e4       0x18 C:\Users\a5143778\Documents\MC_Greece\MC_Greece\RA6T2_MCIHV1_IPM_LESS_FOC_WHOLE_PFC_E2S_V100\src\application\motor_module\current\libr_motor_current_bemf_observer.a(r_motor_current_bemf_observer.o)
                0x000059e4                motor_current_bemf_observer_d_calc
 .text.motor_current_bemf_observer_q_calc
                0x000059fc       0x18 C:\Users\a5143778\Documents\MC_Greece\MC_Greece\RA6T2_MCIHV1_IPM_LESS_FOC_WHOLE_PFC_E2S_V100\src\application\motor_module\current\libr_motor_current_bemf_observer.a(r_motor_current_bemf_observer.o)
                0x000059fc                motor_current_bemf_observer_q_calc
 .text.motor_current_bemf_observer_init
                0x00005a14       0x18 C:\Users\a5143778\Documents\MC_Greece\MC_Greece\RA6T2_MCIHV1_IPM_LESS_FOC_WHOLE_PFC_E2S_V100\src\application\motor_module\current\libr_motor_current_bemf_observer.a(r_motor_current_bemf_observer.o)
                0x00005a14                motor_current_bemf_observer_init
 .text.motor_current_bemf_observer_gain_calc
                0x00005a2c       0x54 C:\Users\a5143778\Documents\MC_Greece\MC_Greece\RA6T2_MCIHV1_IPM_LESS_FOC_WHOLE_PFC_E2S_V100\src\application\motor_module\current\libr_motor_current_bemf_observer.a(r_motor_current_bemf_observer.o)
                0x00005a2c                motor_current_bemf_observer_gain_calc
 .text.motor_current_bemf_observer_reset
                0x00005a80       0x14 C:\Users\a5143778\Documents\MC_Greece\MC_Greece\RA6T2_MCIHV1_IPM_LESS_FOC_WHOLE_PFC_E2S_V100\src\application\motor_module\current\libr_motor_current_bemf_observer.a(r_motor_current_bemf_observer.o)
                0x00005a80                motor_current_bemf_observer_reset
 .text.motor_current_angle_speed_pll
                0x00005a94       0x28 C:\Users\a5143778\Documents\MC_Greece\MC_Greece\RA6T2_MCIHV1_IPM_LESS_FOC_WHOLE_PFC_E2S_V100\src\application\motor_module\current\libr_motor_current_bemf_observer.a(r_motor_current_bemf_observer.o)
                0x00005a94                motor_current_angle_speed_pll
 .text.motor_current_angle_speed_init
                0x00005abc        0x8 C:\Users\a5143778\Documents\MC_Greece\MC_Greece\RA6T2_MCIHV1_IPM_LESS_FOC_WHOLE_PFC_E2S_V100\src\application\motor_module\current\libr_motor_current_bemf_observer.a(r_motor_current_bemf_observer.o)
                0x00005abc                motor_current_angle_speed_init
 .text.motor_current_angle_speed_gain_calc
                0x00005ac4       0x28 C:\Users\a5143778\Documents\MC_Greece\MC_Greece\RA6T2_MCIHV1_IPM_LESS_FOC_WHOLE_PFC_E2S_V100\src\application\motor_module\current\libr_motor_current_bemf_observer.a(r_motor_current_bemf_observer.o)
                0x00005ac4                motor_current_angle_speed_gain_calc
 .text.motor_current_angle_speed_reset
                0x00005aec        0x8 C:\Users\a5143778\Documents\MC_Greece\MC_Greece\RA6T2_MCIHV1_IPM_LESS_FOC_WHOLE_PFC_E2S_V100\src\application\motor_module\current\libr_motor_current_bemf_observer.a(r_motor_current_bemf_observer.o)
                0x00005aec                motor_current_angle_speed_reset
 .text.motor_current_lowspdsensorless_init
                0x00005af4       0x9c C:\Users\a5143778\Documents\MC_Greece\MC_Greece\RA6T2_MCIHV1_IPM_LESS_FOC_WHOLE_PFC_E2S_V100\src\application\motor_module\current\libr_motor_current_lowspd_sensorless.a(r_motor_current_lowspd_sensorless.o)
                0x00005af4                motor_current_lowspdsensorless_init
 .text.motor_current_lowspdsensorless_calc_dtheta
                0x00005b90       0x34 C:\Users\a5143778\Documents\MC_Greece\MC_Greece\RA6T2_MCIHV1_IPM_LESS_FOC_WHOLE_PFC_E2S_V100\src\application\motor_module\current\libr_motor_current_lowspd_sensorless.a(r_motor_current_lowspd_sensorless.o)
                0x00005b90                motor_current_lowspdsensorless_calc_dtheta
 .text.motor_current_lowspdsensorless_save_current
                0x00005bc4       0x34 C:\Users\a5143778\Documents\MC_Greece\MC_Greece\RA6T2_MCIHV1_IPM_LESS_FOC_WHOLE_PFC_E2S_V100\src\application\motor_module\current\libr_motor_current_lowspd_sensorless.a(r_motor_current_lowspd_sensorless.o)
                0x00005bc4                motor_current_lowspdsensorless_save_current
 .text.motor_current_lowspdsensorless_calc_current
                0x00005bf8       0xb4 C:\Users\a5143778\Documents\MC_Greece\MC_Greece\RA6T2_MCIHV1_IPM_LESS_FOC_WHOLE_PFC_E2S_V100\src\application\motor_module\current\libr_motor_current_lowspd_sensorless.a(r_motor_current_lowspd_sensorless.o)
                0x00005bf8                motor_current_lowspdsensorless_calc_current
 .text.motor_current_lowspdsensorless_calc_pf
                0x00005cac       0x9c C:\Users\a5143778\Documents\MC_Greece\MC_Greece\RA6T2_MCIHV1_IPM_LESS_FOC_WHOLE_PFC_E2S_V100\src\application\motor_module\current\libr_motor_current_lowspd_sensorless.a(r_motor_current_lowspd_sensorless.o)
                0x00005cac                motor_current_lowspdsensorless_calc_pf
 .text.motor_current_lowspdsensorless_vd_pulse_injection
                0x00005d48       0x38 C:\Users\a5143778\Documents\MC_Greece\MC_Greece\RA6T2_MCIHV1_IPM_LESS_FOC_WHOLE_PFC_E2S_V100\src\application\motor_module\current\libr_motor_current_lowspd_sensorless.a(r_motor_current_lowspd_sensorless.o)
                0x00005d48                motor_current_lowspdsensorless_vd_pulse_injection
 .text.motor_current_stall_detection_init
                0x00005d80       0x4c C:\Users\a5143778\Documents\MC_Greece\MC_Greece\RA6T2_MCIHV1_IPM_LESS_FOC_WHOLE_PFC_E2S_V100\src\application\motor_module\current\libr_motor_current_stall_detection.a(r_motor_current_stall_detection.o)
                0x00005d80                motor_current_stall_detection_init
 .text.motor_current_stall_detection_parameter_set
                0x00005dcc       0x20 C:\Users\a5143778\Documents\MC_Greece\MC_Greece\RA6T2_MCIHV1_IPM_LESS_FOC_WHOLE_PFC_E2S_V100\src\application\motor_module\current\libr_motor_current_stall_detection.a(r_motor_current_stall_detection.o)
                0x00005dcc                motor_current_stall_detection_parameter_set
 .text.motor_current_stall_detection_reset
                0x00005dec       0x30 C:\Users\a5143778\Documents\MC_Greece\MC_Greece\RA6T2_MCIHV1_IPM_LESS_FOC_WHOLE_PFC_E2S_V100\src\application\motor_module\current\libr_motor_current_stall_detection.a(r_motor_current_stall_detection.o)
                0x00005dec                motor_current_stall_detection_reset
 .text.motor_current_stall_detection_main
                0x00005e1c       0xdc C:\Users\a5143778\Documents\MC_Greece\MC_Greece\RA6T2_MCIHV1_IPM_LESS_FOC_WHOLE_PFC_E2S_V100\src\application\motor_module\current\libr_motor_current_stall_detection.a(r_motor_current_stall_detection.o)
                0x00005e1c                motor_current_stall_detection_main
 .text.motor_current_trq_vibration_compensation_init
                0x00005ef8       0x90 C:\Users\a5143778\Documents\MC_Greece\MC_Greece\RA6T2_MCIHV1_IPM_LESS_FOC_WHOLE_PFC_E2S_V100\src\application\motor_module\current\libr_motor_current_trq_vib_comp.a(r_motor_current_trq_vib_comp.o)
                0x00005ef8                motor_current_trq_vibration_compensation_init
 .text.motor_current_trq_vibration_compensation_reset
                0x00005f88       0x40 C:\Users\a5143778\Documents\MC_Greece\MC_Greece\RA6T2_MCIHV1_IPM_LESS_FOC_WHOLE_PFC_E2S_V100\src\application\motor_module\current\libr_motor_current_trq_vib_comp.a(r_motor_current_trq_vib_comp.o)
                0x00005f88                motor_current_trq_vibration_compensation_reset
 .text.motor_current_trq_vibration_compensation_parameter_set
                0x00005fc8       0x48 C:\Users\a5143778\Documents\MC_Greece\MC_Greece\RA6T2_MCIHV1_IPM_LESS_FOC_WHOLE_PFC_E2S_V100\src\application\motor_module\current\libr_motor_current_trq_vib_comp.a(r_motor_current_trq_vib_comp.o)
                0x00005fc8                motor_current_trq_vibration_compensation_parameter_set
 .text.motor_current_trq_vibration_compensation_main
                0x00006010      0x13c C:\Users\a5143778\Documents\MC_Greece\MC_Greece\RA6T2_MCIHV1_IPM_LESS_FOC_WHOLE_PFC_E2S_V100\src\application\motor_module\current\libr_motor_current_trq_vib_comp.a(r_motor_current_trq_vib_comp.o)
                0x00006010                motor_current_trq_vibration_compensation_main
 .text.motor_current_trq_vibration_compensation_trackingfilter
                0x0000614c       0x94 C:\Users\a5143778\Documents\MC_Greece\MC_Greece\RA6T2_MCIHV1_IPM_LESS_FOC_WHOLE_PFC_E2S_V100\src\application\motor_module\current\libr_motor_current_trq_vib_comp.a(r_motor_current_trq_vib_comp.o)
                0x0000614c                motor_current_trq_vibration_compensation_trackingfilter
 .text.motor_current_trq_vibration_compensation_preproc
                0x000061e0       0x98 C:\Users\a5143778\Documents\MC_Greece\MC_Greece\RA6T2_MCIHV1_IPM_LESS_FOC_WHOLE_PFC_E2S_V100\src\application\motor_module\current\libr_motor_current_trq_vib_comp.a(r_motor_current_trq_vib_comp.o)
                0x000061e0                motor_current_trq_vibration_compensation_preproc
 .text.motor_current_volt_err_comp_calc.part.0
                0x00006278      0x204 C:\Users\a5143778\Documents\MC_Greece\MC_Greece\RA6T2_MCIHV1_IPM_LESS_FOC_WHOLE_PFC_E2S_V100\src\application\motor_module\current\libr_motor_current_volt_err_comp.a(r_motor_current_volt_err_comp.o)
 .text.motor_current_volt_err_comp_init
                0x0000647c       0xb0 C:\Users\a5143778\Documents\MC_Greece\MC_Greece\RA6T2_MCIHV1_IPM_LESS_FOC_WHOLE_PFC_E2S_V100\src\application\motor_module\current\libr_motor_current_volt_err_comp.a(r_motor_current_volt_err_comp.o)
                0x0000647c                motor_current_volt_err_comp_init
 .text.motor_current_volt_err_comp_main
                0x0000652c      0x1fc C:\Users\a5143778\Documents\MC_Greece\MC_Greece\RA6T2_MCIHV1_IPM_LESS_FOC_WHOLE_PFC_E2S_V100\src\application\motor_module\current\libr_motor_current_volt_err_comp.a(r_motor_current_volt_err_comp.o)
                0x0000652c                motor_current_volt_err_comp_main
 .text.motor_current_volt_err_comp_table_set
                0x00006728       0x98 C:\Users\a5143778\Documents\MC_Greece\MC_Greece\RA6T2_MCIHV1_IPM_LESS_FOC_WHOLE_PFC_E2S_V100\src\application\motor_module\current\libr_motor_current_volt_err_comp.a(r_motor_current_volt_err_comp.o)
                0x00006728                motor_current_volt_err_comp_table_set
 .text.motor_current_volt_err_vlimit_set
                0x000067c0       0x10 C:\Users\a5143778\Documents\MC_Greece\MC_Greece\RA6T2_MCIHV1_IPM_LESS_FOC_WHOLE_PFC_E2S_V100\src\application\motor_module\current\libr_motor_current_volt_err_comp.a(r_motor_current_volt_err_comp.o)
                0x000067c0                motor_current_volt_err_vlimit_set
 .text.motor_flying_start_init
                0x000067d0       0x50 C:\Users\a5143778\Documents\MC_Greece\MC_Greece\RA6T2_MCIHV1_IPM_LESS_FOC_WHOLE_PFC_E2S_V100\src\application\motor_module\sensorless_vector\libr_motor_sensorless_vector_flyingstart.a(r_motor_sensorless_vector_flyingstart.o)
                0x000067d0                motor_flying_start_init
 .text.motor_flying_start_reset
                0x00006820       0x28 C:\Users\a5143778\Documents\MC_Greece\MC_Greece\RA6T2_MCIHV1_IPM_LESS_FOC_WHOLE_PFC_E2S_V100\src\application\motor_module\sensorless_vector\libr_motor_sensorless_vector_flyingstart.a(r_motor_sensorless_vector_flyingstart.o)
                0x00006820                motor_flying_start_reset
 .text.motor_flying_start_parameter_set
                0x00006848       0x2c C:\Users\a5143778\Documents\MC_Greece\MC_Greece\RA6T2_MCIHV1_IPM_LESS_FOC_WHOLE_PFC_E2S_V100\src\application\motor_module\sensorless_vector\libr_motor_sensorless_vector_flyingstart.a(r_motor_sensorless_vector_flyingstart.o)
                0x00006848                motor_flying_start_parameter_set
 .text.motor_flying_start_main
                0x00006874      0x354 C:\Users\a5143778\Documents\MC_Greece\MC_Greece\RA6T2_MCIHV1_IPM_LESS_FOC_WHOLE_PFC_E2S_V100\src\application\motor_module\sensorless_vector\libr_motor_sensorless_vector_flyingstart.a(r_motor_sensorless_vector_flyingstart.o)
                0x00006874                motor_flying_start_main
 .text.motor_speed_extobserver_init
                0x00006bc8       0x9c C:\Users\a5143778\Documents\MC_Greece\MC_Greece\RA6T2_MCIHV1_IPM_LESS_FOC_WHOLE_PFC_E2S_V100\src\application\motor_module\speed\libr_motor_speed_extobserver.a(r_motor_speed_extobserver.o)
                0x00006bc8                motor_speed_extobserver_init
 .text.motor_speed_extobserver_reset
                0x00006c64        0xc C:\Users\a5143778\Documents\MC_Greece\MC_Greece\RA6T2_MCIHV1_IPM_LESS_FOC_WHOLE_PFC_E2S_V100\src\application\motor_module\speed\libr_motor_speed_extobserver.a(r_motor_speed_extobserver.o)
                0x00006c64                motor_speed_extobserver_reset
 .text.motor_speed_extobserver_start
                0x00006c70       0x7c C:\Users\a5143778\Documents\MC_Greece\MC_Greece\RA6T2_MCIHV1_IPM_LESS_FOC_WHOLE_PFC_E2S_V100\src\application\motor_module\speed\libr_motor_speed_extobserver.a(r_motor_speed_extobserver.o)
                0x00006c70                motor_speed_extobserver_start
 .text.motor_speed_extobserver_mech_speed_get
                0x00006cec        0x8 C:\Users\a5143778\Documents\MC_Greece\MC_Greece\RA6T2_MCIHV1_IPM_LESS_FOC_WHOLE_PFC_E2S_V100\src\application\motor_module\speed\libr_motor_speed_extobserver.a(r_motor_speed_extobserver.o)
                0x00006cec                motor_speed_extobserver_mech_speed_get
 .text.motor_speed_extobserver_disturbance_get
                0x00006cf4        0x8 C:\Users\a5143778\Documents\MC_Greece\MC_Greece\RA6T2_MCIHV1_IPM_LESS_FOC_WHOLE_PFC_E2S_V100\src\application\motor_module\speed\libr_motor_speed_extobserver.a(r_motor_speed_extobserver.o)
                0x00006cf4                motor_speed_extobserver_disturbance_get
 .text.motor_speed_extobserver_natural_freq_set
                0x00006cfc       0x68 C:\Users\a5143778\Documents\MC_Greece\MC_Greece\RA6T2_MCIHV1_IPM_LESS_FOC_WHOLE_PFC_E2S_V100\src\application\motor_module\speed\libr_motor_speed_extobserver.a(r_motor_speed_extobserver.o)
                0x00006cfc                motor_speed_extobserver_natural_freq_set
 .text.motor_speed_extobserver_inertia_set
                0x00006d64        0x8 C:\Users\a5143778\Documents\MC_Greece\MC_Greece\RA6T2_MCIHV1_IPM_LESS_FOC_WHOLE_PFC_E2S_V100\src\application\motor_module\speed\libr_motor_speed_extobserver.a(r_motor_speed_extobserver.o)
                0x00006d64                motor_speed_extobserver_inertia_set
 .text.motor_speed_extobserver_current_limit_set
                0x00006d6c       0x18 C:\Users\a5143778\Documents\MC_Greece\MC_Greece\RA6T2_MCIHV1_IPM_LESS_FOC_WHOLE_PFC_E2S_V100\src\application\motor_module\speed\libr_motor_speed_extobserver.a(r_motor_speed_extobserver.o)
                0x00006d6c                motor_speed_extobserver_current_limit_set
 .text.motor_speed_extobserver_disturbance_current_limit
                0x00006d84       0x74 C:\Users\a5143778\Documents\MC_Greece\MC_Greece\RA6T2_MCIHV1_IPM_LESS_FOC_WHOLE_PFC_E2S_V100\src\application\motor_module\speed\libr_motor_speed_extobserver.a(r_motor_speed_extobserver.o)
                0x00006d84                motor_speed_extobserver_disturbance_current_limit
 .text.motor_speed_flux_weakn_reset
                0x00006df8       0x14 C:\Users\a5143778\Documents\MC_Greece\MC_Greece\RA6T2_MCIHV1_IPM_LESS_FOC_WHOLE_PFC_E2S_V100\src\application\motor_module\speed\libr_motor_speed_fluxwkn.a(r_motor_speed_fluxwkn.o)
                0x00006df8                motor_speed_flux_weakn_reset
 .text.motor_speed_flux_weakn_start
                0x00006e0c      0x168 C:\Users\a5143778\Documents\MC_Greece\MC_Greece\RA6T2_MCIHV1_IPM_LESS_FOC_WHOLE_PFC_E2S_V100\src\application\motor_module\speed\libr_motor_speed_fluxwkn.a(r_motor_speed_fluxwkn.o)
                0x00006e0c                motor_speed_flux_weakn_start
 .text.motor_speed_flux_weakn_motor_set
                0x00006f74       0x64 C:\Users\a5143778\Documents\MC_Greece\MC_Greece\RA6T2_MCIHV1_IPM_LESS_FOC_WHOLE_PFC_E2S_V100\src\application\motor_module\speed\libr_motor_speed_fluxwkn.a(r_motor_speed_fluxwkn.o)
                0x00006f74                motor_speed_flux_weakn_motor_set
 .text.motor_speed_flux_weakn_init
                0x00006fd8       0xbc C:\Users\a5143778\Documents\MC_Greece\MC_Greece\RA6T2_MCIHV1_IPM_LESS_FOC_WHOLE_PFC_E2S_V100\src\application\motor_module\speed\libr_motor_speed_fluxwkn.a(r_motor_speed_fluxwkn.o)
                0x00006fd8                motor_speed_flux_weakn_init
 .text.motor_speed_flux_weakn_iamax_set
                0x00007094       0x40 C:\Users\a5143778\Documents\MC_Greece\MC_Greece\RA6T2_MCIHV1_IPM_LESS_FOC_WHOLE_PFC_E2S_V100\src\application\motor_module\speed\libr_motor_speed_fluxwkn.a(r_motor_speed_fluxwkn.o)
                0x00007094                motor_speed_flux_weakn_iamax_set
 .text.motor_speed_flux_weakn_vamax_set
                0x000070d4       0x24 C:\Users\a5143778\Documents\MC_Greece\MC_Greece\RA6T2_MCIHV1_IPM_LESS_FOC_WHOLE_PFC_E2S_V100\src\application\motor_module\speed\libr_motor_speed_fluxwkn.a(r_motor_speed_fluxwkn.o)
                0x000070d4                motor_speed_flux_weakn_vamax_set
 .text.motor_speed_flux_weakn_status_get
                0x000070f8        0x4 C:\Users\a5143778\Documents\MC_Greece\MC_Greece\RA6T2_MCIHV1_IPM_LESS_FOC_WHOLE_PFC_E2S_V100\src\application\motor_module\speed\libr_motor_speed_fluxwkn.a(r_motor_speed_fluxwkn.o)
                0x000070f8                motor_speed_flux_weakn_status_get
 .text          0x000070fc      0x378 C:/Program Files (x86)/Arm GNU Toolchain arm-none-eabi/13.3 rel1/bin/../lib/gcc/arm-none-eabi/13.3.1/thumb/v8-m.main+fp/hard\libgcc.a(_arm_addsubdf3.o)
                0x000070fc                __aeabi_drsub
                0x00007104                __aeabi_dsub
                0x00007104                __subdf3
                0x00007108                __aeabi_dadd
                0x00007108                __adddf3
                0x00007380                __floatunsidf
                0x00007380                __aeabi_ui2d
                0x000073a0                __floatsidf
                0x000073a0                __aeabi_i2d
                0x000073c4                __aeabi_f2d
                0x000073c4                __extendsfdf2
                0x00007408                __floatundidf
                0x00007408                __aeabi_ul2d
                0x00007418                __floatdidf
                0x00007418                __aeabi_l2d
 .text          0x00007474       0xa0 C:/Program Files (x86)/Arm GNU Toolchain arm-none-eabi/13.3 rel1/bin/../lib/gcc/arm-none-eabi/13.3.1/thumb/v8-m.main+fp/hard\libgcc.a(_arm_truncdfsf2.o)
                0x00007474                __truncdfsf2
                0x00007474                __aeabi_d2f
 .text.memset   0x00007514       0x10 C:/Program Files (x86)/Arm GNU Toolchain arm-none-eabi/13.3 rel1/bin/../lib/gcc/arm-none-eabi/13.3.1/thumb/v8-m.main+fp/hard\libg_nano.a(libc_a-memset.o)
                0x00007514                memset
 .text.__errno  0x00007524        0xc C:/Program Files (x86)/Arm GNU Toolchain arm-none-eabi/13.3 rel1/bin/../lib/gcc/arm-none-eabi/13.3.1/thumb/v8-m.main+fp/hard\libg_nano.a(libc_a-errno.o)
                0x00007524                __errno
 .text.memcpy   0x00007530       0x1a C:/Program Files (x86)/Arm GNU Toolchain arm-none-eabi/13.3 rel1/bin/../lib/gcc/arm-none-eabi/13.3.1/thumb/v8-m.main+fp/hard\libg_nano.a(libc_a-memcpy-stub.o)
                0x00007530                memcpy
 *fill*         0x0000754a        0x2 ff
 .text.sqrt     0x0000754c       0x68 C:/Program Files (x86)/Arm GNU Toolchain arm-none-eabi/13.3 rel1/bin/../lib/gcc/arm-none-eabi/13.3.1/thumb/v8-m.main+fp/hard\libm.a(libm_a-w_sqrt.o)
                0x0000754c                sqrt
 .text.atan2f   0x000075b4        0x4 C:/Program Files (x86)/Arm GNU Toolchain arm-none-eabi/13.3 rel1/bin/../lib/gcc/arm-none-eabi/13.3.1/thumb/v8-m.main+fp/hard\libm.a(libm_a-wf_atan2.o)
                0x000075b4                atan2f
 .text.sqrtf    0x000075b8       0x44 C:/Program Files (x86)/Arm GNU Toolchain arm-none-eabi/13.3 rel1/bin/../lib/gcc/arm-none-eabi/13.3.1/thumb/v8-m.main+fp/hard\libm.a(libm_a-wf_sqrt.o)
                0x000075b8                sqrtf
 .text.atanf    0x000075fc      0x1a4 C:/Program Files (x86)/Arm GNU Toolchain arm-none-eabi/13.3 rel1/bin/../lib/gcc/arm-none-eabi/13.3.1/thumb/v8-m.main+fp/hard\libm.a(libm_a-sf_atan.o)
                0x000075fc                atanf
 .text.cosf     0x000077a0       0x88 C:/Program Files (x86)/Arm GNU Toolchain arm-none-eabi/13.3 rel1/bin/../lib/gcc/arm-none-eabi/13.3.1/thumb/v8-m.main+fp/hard\libm.a(libm_a-sf_cos.o)
                0x000077a0                cosf
 .text.fabsf    0x00007828       0x10 C:/Program Files (x86)/Arm GNU Toolchain arm-none-eabi/13.3 rel1/bin/../lib/gcc/arm-none-eabi/13.3.1/thumb/v8-m.main+fp/hard\libm.a(libm_a-sf_fabs.o)
                0x00007828                fabsf
 .text.sinf     0x00007838       0x8c C:/Program Files (x86)/Arm GNU Toolchain arm-none-eabi/13.3 rel1/bin/../lib/gcc/arm-none-eabi/13.3.1/thumb/v8-m.main+fp/hard\libm.a(libm_a-sf_sin.o)
                0x00007838                sinf
 .text.__ieee754_sqrt
                0x000078c4      0x1e0 C:/Program Files (x86)/Arm GNU Toolchain arm-none-eabi/13.3 rel1/bin/../lib/gcc/arm-none-eabi/13.3.1/thumb/v8-m.main+fp/hard\libm.a(libm_a-e_sqrt.o)
                0x000078c4                __ieee754_sqrt
 .text.__ieee754_sqrtf
                0x00007aa4        0x8 C:/Program Files (x86)/Arm GNU Toolchain arm-none-eabi/13.3 rel1/bin/../lib/gcc/arm-none-eabi/13.3.1/thumb/v8-m.main+fp/hard\libm.a(libm_a-ef_sqrt.o)
                0x00007aa4                __ieee754_sqrtf
 .text.__kernel_cosf
                0x00007aac      0x104 C:/Program Files (x86)/Arm GNU Toolchain arm-none-eabi/13.3 rel1/bin/../lib/gcc/arm-none-eabi/13.3.1/thumb/v8-m.main+fp/hard\libm.a(libm_a-kf_cos.o)
                0x00007aac                __kernel_cosf
 .text.__kernel_sinf
                0x00007bb0       0x90 C:/Program Files (x86)/Arm GNU Toolchain arm-none-eabi/13.3 rel1/bin/../lib/gcc/arm-none-eabi/13.3.1/thumb/v8-m.main+fp/hard\libm.a(libm_a-kf_sin.o)
                0x00007bb0                __kernel_sinf
 .text.__ieee754_atan2f
                0x00007c40      0x158 C:/Program Files (x86)/Arm GNU Toolchain arm-none-eabi/13.3 rel1/bin/../lib/gcc/arm-none-eabi/13.3.1/thumb/v8-m.main+fp/hard\libm.a(libm_a-ef_atan2.o)
                0x00007c40                __ieee754_atan2f
 .text.__ieee754_rem_pio2f
                0x00007d98      0x278 C:/Program Files (x86)/Arm GNU Toolchain arm-none-eabi/13.3 rel1/bin/../lib/gcc/arm-none-eabi/13.3.1/thumb/v8-m.main+fp/hard\libm.a(libm_a-ef_rem_pio2.o)
                0x00007d98                __ieee754_rem_pio2f
 .text.__kernel_rem_pio2f
                0x00008010      0x640 C:/Program Files (x86)/Arm GNU Toolchain arm-none-eabi/13.3 rel1/bin/../lib/gcc/arm-none-eabi/13.3.1/thumb/v8-m.main+fp/hard\libm.a(libm_a-kf_rem_pio2.o)
                0x00008010                __kernel_rem_pio2f
 .text.scalbnf  0x00008650       0xe0 C:/Program Files (x86)/Arm GNU Toolchain arm-none-eabi/13.3 rel1/bin/../lib/gcc/arm-none-eabi/13.3.1/thumb/v8-m.main+fp/hard\libm.a(libm_a-sf_scalbn.o)
                0x00008650                scalbnf
 .text.floorf   0x00008730        0x8 C:/Program Files (x86)/Arm GNU Toolchain arm-none-eabi/13.3 rel1/bin/../lib/gcc/arm-none-eabi/13.3.1/thumb/v8-m.main+fp/hard\libm.a(libm_a-sf_floor.o)
                0x00008730                floorf
 .text          0x00008738      0x424 C:/Program Files (x86)/Arm GNU Toolchain arm-none-eabi/13.3 rel1/bin/../lib/gcc/arm-none-eabi/13.3.1/thumb/v8-m.main+fp/hard\libgcc.a(_arm_muldivdf3.o)
                0x00008738                __aeabi_dmul
                0x00008738                __muldf3
                0x0000898c                __divdf3
                0x0000898c                __aeabi_ddiv
 .text          0x00008b5c      0x110 C:/Program Files (x86)/Arm GNU Toolchain arm-none-eabi/13.3 rel1/bin/../lib/gcc/arm-none-eabi/13.3.1/thumb/v8-m.main+fp/hard\libgcc.a(_arm_cmpdf2.o)
                0x00008b5c                __gtdf2
                0x00008b5c                __gedf2
                0x00008b64                __ltdf2
                0x00008b64                __ledf2
                0x00008b6c                __nedf2
                0x00008b6c                __eqdf2
                0x00008b6c                __cmpdf2
                0x00008be8                __aeabi_cdrcmple
                0x00008bf8                __aeabi_cdcmpeq
                0x00008bf8                __aeabi_cdcmple
                0x00008c08                __aeabi_dcmpeq
                0x00008c1c                __aeabi_dcmplt
                0x00008c30                __aeabi_dcmple
                0x00008c44                __aeabi_dcmpge
                0x00008c58                __aeabi_dcmpgt
 .text          0x00008c6c       0x2c C:/Program Files (x86)/Arm GNU Toolchain arm-none-eabi/13.3 rel1/bin/../lib/gcc/arm-none-eabi/13.3.1/thumb/v8-m.main+fp/hard\libgcc.a(_arm_unorddf2.o)
                0x00008c6c                __unorddf2
                0x00008c6c                __aeabi_dcmpun
 *(.version)
 .version       0x00008c98       0x50 ./ra/fsp/src/bsp/mcu/all/bsp_common.o
 *(.init)
 .init          0x00008ce8        0x4 C:/Program Files (x86)/Arm GNU Toolchain arm-none-eabi/13.3 rel1/bin/../lib/gcc/arm-none-eabi/13.3.1/thumb/v8-m.main+fp/hard/crti.o
                0x00008ce8                _init
 .init          0x00008cec        0x8 C:/Program Files (x86)/Arm GNU Toolchain arm-none-eabi/13.3 rel1/bin/../lib/gcc/arm-none-eabi/13.3.1/thumb/v8-m.main+fp/hard/crtn.o
 *(.fini)
 .fini          0x00008cf4        0x4 C:/Program Files (x86)/Arm GNU Toolchain arm-none-eabi/13.3 rel1/bin/../lib/gcc/arm-none-eabi/13.3.1/thumb/v8-m.main+fp/hard/crti.o
                0x00008cf4                _fini
 .fini          0x00008cf8        0x8 C:/Program Files (x86)/Arm GNU Toolchain arm-none-eabi/13.3 rel1/bin/../lib/gcc/arm-none-eabi/13.3.1/thumb/v8-m.main+fp/hard/crtn.o
 *crtbegin.o(.ctors)
 *crtbegin?.o(.ctors)
 *(EXCLUDE_FILE(*crtend.o *crtend?.o) .ctors)
 *(SORT_BY_NAME(.ctors.*))
 *(.ctors)
 *crtbegin.o(.dtors)
 *crtbegin?.o(.dtors)
 *(EXCLUDE_FILE(*crtend.o *crtend?.o) .dtors)
 *(SORT_BY_NAME(.dtors.*))
 *(.dtors)
 *(.rodata*)
 .rodata.r_app_rmw_ui_init.str1.4
                0x00008d00       0x4d ./src/application/user_interface/ics/r_mtr_ics.o
                                 0x49 (size before relaxing)
 *fill*         0x00008d4d        0x3 ff
 .rodata.volterr_array.0
                0x00008d50       0x14 ./src/application/motor_module/sensorless_vector/r_motor_sensorless_vector_manager.o
 .rodata.crnt_array.1
                0x00008d64       0x14 ./src/application/motor_module/sensorless_vector/r_motor_sensorless_vector_manager.o
 .rodata.s_action_table
                0x00008d78       0x30 ./src/application/motor_module/sensorless_vector/r_motor_sensorless_vector_statemachine.o
 .rodata.s_state_transition_table
                0x00008da8        0xc ./src/application/motor_module/sensorless_vector/r_motor_sensorless_vector_statemachine.o
 .rodata.g_ioport
                0x00008db4        0xc ./ra_gen/common_data.o
                0x00008db4                g_ioport
 .rodata.g_adc0_cfg
                0x00008dc0       0x18 ./ra_gen/hal_data.o
                0x00008dc0                g_adc0_cfg
 .rodata.g_adc0_cfg_extend
                0x00008dd8      0x104 ./ra_gen/hal_data.o
                0x00008dd8                g_adc0_cfg_extend
 .rodata.g_adc0_isr_cfg
                0x00008edc       0x28 ./ra_gen/hal_data.o
                0x00008edc                g_adc0_isr_cfg
 .rodata.g_adc0_scan_cfg
                0x00008f04        0x8 ./ra_gen/hal_data.o
                0x00008f04                g_adc0_scan_cfg
 .rodata.g_adc0_scan_cfg_groups
                0x00008f0c        0x8 ./ra_gen/hal_data.o
                0x00008f0c                g_adc0_scan_cfg_groups
 .rodata.g_adc0_group_1_cfg
                0x00008f14       0x1c ./ra_gen/hal_data.o
                0x00008f14                g_adc0_group_1_cfg
 .rodata.g_adc0_group_0_cfg
                0x00008f30       0x1c ./ra_gen/hal_data.o
                0x00008f30                g_adc0_group_0_cfg
 .rodata.g_adc0_group_0_virtual_channels
                0x00008f4c       0x1c ./ra_gen/hal_data.o
                0x00008f4c                g_adc0_group_0_virtual_channels
 .rodata.g_adc0_virtual_channel_6_cfg
                0x00008f68       0x14 ./ra_gen/hal_data.o
                0x00008f68                g_adc0_virtual_channel_6_cfg
 .rodata.g_adc0_virtual_channel_5_cfg
                0x00008f7c       0x14 ./ra_gen/hal_data.o
                0x00008f7c                g_adc0_virtual_channel_5_cfg
 .rodata.g_adc0_virtual_channel_4_cfg
                0x00008f90       0x14 ./ra_gen/hal_data.o
                0x00008f90                g_adc0_virtual_channel_4_cfg
 .rodata.g_adc0_virtual_channel_3_cfg
                0x00008fa4       0x14 ./ra_gen/hal_data.o
                0x00008fa4                g_adc0_virtual_channel_3_cfg
 .rodata.g_adc0_virtual_channel_2_cfg
                0x00008fb8       0x14 ./ra_gen/hal_data.o
                0x00008fb8                g_adc0_virtual_channel_2_cfg
 .rodata.g_adc0_virtual_channel_1_cfg
                0x00008fcc       0x14 ./ra_gen/hal_data.o
                0x00008fcc                g_adc0_virtual_channel_1_cfg
 .rodata.g_adc0_virtual_channel_0_cfg
                0x00008fe0       0x14 ./ra_gen/hal_data.o
                0x00008fe0                g_adc0_virtual_channel_0_cfg
 .rodata.g_three_phase0_cfg
                0x00008ff4       0x20 ./ra_gen/hal_data.o
                0x00008ff4                g_three_phase0_cfg
 .rodata.g_timer_gpt4
                0x00009014        0xc ./ra_gen/hal_data.o
                0x00009014                g_timer_gpt4
 .rodata.g_timer_gpt4_cfg
                0x00009020       0x20 ./ra_gen/hal_data.o
                0x00009020                g_timer_gpt4_cfg
 .rodata.g_timer_gpt4_extend
                0x00009040       0x3c ./ra_gen/hal_data.o
                0x00009040                g_timer_gpt4_extend
 .rodata.g_timer_gpt4_pwm_extend
                0x0000907c       0x20 ./ra_gen/hal_data.o
                0x0000907c                g_timer_gpt4_pwm_extend
 .rodata.g_timer_gpt5
                0x0000909c        0xc ./ra_gen/hal_data.o
                0x0000909c                g_timer_gpt5
 .rodata.g_timer_gpt5_cfg
                0x000090a8       0x20 ./ra_gen/hal_data.o
                0x000090a8                g_timer_gpt5_cfg
 .rodata.g_timer_gpt5_extend
                0x000090c8       0x3c ./ra_gen/hal_data.o
                0x000090c8                g_timer_gpt5_extend
 .rodata.g_timer_gpt5_pwm_extend
                0x00009104       0x20 ./ra_gen/hal_data.o
                0x00009104                g_timer_gpt5_pwm_extend
 .rodata.g_timer_gpt6
                0x00009124        0xc ./ra_gen/hal_data.o
                0x00009124                g_timer_gpt6
 .rodata.g_timer_gpt6_cfg
                0x00009130       0x20 ./ra_gen/hal_data.o
                0x00009130                g_timer_gpt6_cfg
 .rodata.g_timer_gpt6_extend
                0x00009150       0x3c ./ra_gen/hal_data.o
                0x00009150                g_timer_gpt6_extend
 .rodata.g_timer_gpt6_pwm_extend
                0x0000918c       0x20 ./ra_gen/hal_data.o
                0x0000918c                g_timer_gpt6_pwm_extend
 .rodata.g_poeg3
                0x000091ac        0xc ./ra_gen/hal_data.o
                0x000091ac                g_poeg3
 .rodata.g_poeg3_cfg
                0x000091b8       0x18 ./ra_gen/hal_data.o
                0x000091b8                g_poeg3_cfg
 .rodata.g_agt0_cfg
                0x000091d0       0x20 ./ra_gen/hal_data.o
                0x000091d0                g_agt0_cfg
 .rodata.g_agt0_extend
                0x000091f0        0x8 ./ra_gen/hal_data.o
                0x000091f0                g_agt0_extend
 .rodata.g_timer_gpt1_cfg
                0x000091f8       0x20 ./ra_gen/hal_data.o
                0x000091f8                g_timer_gpt1_cfg
 .rodata.g_timer_gpt1_extend
                0x00009218       0x3c ./ra_gen/hal_data.o
                0x00009218                g_timer_gpt1_extend
 .rodata.g_timer_gpt1_pwm_extend
                0x00009254       0x20 ./ra_gen/hal_data.o
                0x00009254                g_timer_gpt1_pwm_extend
 .rodata.g_agt1_cfg
                0x00009274       0x20 ./ra_gen/hal_data.o
                0x00009274                g_agt1_cfg
 .rodata.g_agt1_extend
                0x00009294        0x8 ./ra_gen/hal_data.o
                0x00009294                g_agt1_extend
 .rodata.g_bsp_pin_cfg
                0x0000929c        0xc ./ra_gen/pin_data.o
                0x0000929c                g_bsp_pin_cfg
 .rodata.g_bsp_pin_cfg_data
                0x000092a8       0xc0 ./ra_gen/pin_data.o
                0x000092a8                g_bsp_pin_cfg_data
 .rodata.g_interrupt_event_link_select
                0x00009368       0xc0 ./ra_gen/vector_data.o
                0x00009368                g_interrupt_event_link_select
 .rodata.g_poeg_on_poeg
                0x00009428       0x18 ./ra/fsp/src/r_poeg/r_poeg.o
                0x00009428                g_poeg_on_poeg
 .rodata.g_ioport_on_ioport
                0x00009440       0x34 ./ra/fsp/src/r_ioport/r_ioport.o
                0x00009440                g_ioport_on_ioport
 .rodata.g_timer_on_gpt
                0x00009474       0x34 ./ra/fsp/src/r_gpt/r_gpt.o
                0x00009474                g_timer_on_gpt
 .rodata.CSWTCH.46
                0x000094a8       0x18 ./ra/fsp/src/r_adc_b/r_adc_b.o
 .rodata.CSWTCH.45
                0x000094c0        0x6 ./ra/fsp/src/r_adc_b/r_adc_b.o
 *fill*         0x000094c6        0x2 ff
 .rodata.g_prcr_masks
                0x000094c8        0x8 ./ra/fsp/src/bsp/mcu/all/bsp_register_protection.o
 .rodata.atanlo
                0x000094d0       0x10 C:/Program Files (x86)/Arm GNU Toolchain arm-none-eabi/13.3 rel1/bin/../lib/gcc/arm-none-eabi/13.3.1/thumb/v8-m.main+fp/hard\libm.a(libm_a-sf_atan.o)
 .rodata.atanhi
                0x000094e0       0x10 C:/Program Files (x86)/Arm GNU Toolchain arm-none-eabi/13.3 rel1/bin/../lib/gcc/arm-none-eabi/13.3.1/thumb/v8-m.main+fp/hard\libm.a(libm_a-sf_atan.o)
 .rodata.tiny   0x000094f0        0x8 C:/Program Files (x86)/Arm GNU Toolchain arm-none-eabi/13.3 rel1/bin/../lib/gcc/arm-none-eabi/13.3.1/thumb/v8-m.main+fp/hard\libm.a(libm_a-e_sqrt.o)
 .rodata.one    0x000094f8        0x8 C:/Program Files (x86)/Arm GNU Toolchain arm-none-eabi/13.3 rel1/bin/../lib/gcc/arm-none-eabi/13.3.1/thumb/v8-m.main+fp/hard\libm.a(libm_a-e_sqrt.o)
 .rodata.CSWTCH.9
                0x00009500        0xc C:/Program Files (x86)/Arm GNU Toolchain arm-none-eabi/13.3 rel1/bin/../lib/gcc/arm-none-eabi/13.3.1/thumb/v8-m.main+fp/hard\libm.a(libm_a-ef_atan2.o)
 .rodata.CSWTCH.8
                0x0000950c        0xc C:/Program Files (x86)/Arm GNU Toolchain arm-none-eabi/13.3 rel1/bin/../lib/gcc/arm-none-eabi/13.3.1/thumb/v8-m.main+fp/hard\libm.a(libm_a-ef_atan2.o)
 .rodata.npio2_hw
                0x00009518       0x80 C:/Program Files (x86)/Arm GNU Toolchain arm-none-eabi/13.3 rel1/bin/../lib/gcc/arm-none-eabi/13.3.1/thumb/v8-m.main+fp/hard\libm.a(libm_a-ef_rem_pio2.o)
 .rodata.two_over_pi
                0x00009598      0x318 C:/Program Files (x86)/Arm GNU Toolchain arm-none-eabi/13.3 rel1/bin/../lib/gcc/arm-none-eabi/13.3.1/thumb/v8-m.main+fp/hard\libm.a(libm_a-ef_rem_pio2.o)
 .rodata.PIo2   0x000098b0       0x2c C:/Program Files (x86)/Arm GNU Toolchain arm-none-eabi/13.3 rel1/bin/../lib/gcc/arm-none-eabi/13.3.1/thumb/v8-m.main+fp/hard\libm.a(libm_a-kf_rem_pio2.o)
 .rodata.init_jk
                0x000098dc        0xc C:/Program Files (x86)/Arm GNU Toolchain arm-none-eabi/13.3 rel1/bin/../lib/gcc/arm-none-eabi/13.3.1/thumb/v8-m.main+fp/hard\libm.a(libm_a-kf_rem_pio2.o)
                0x000098e8                        __usb_dev_descriptor_start_fs = .
 *(.usb_device_desc_fs*)
                0x000098e8                        __usb_cfg_descriptor_start_fs = .
 *(.usb_config_desc_fs*)
                0x000098e8                        __usb_interface_descriptor_start_fs = .
 *(.usb_interface_desc_fs*)
                0x000098e8                        __usb_descriptor_end_fs = .
                0x000098e8                        __usb_dev_descriptor_start_hs = .
 *(.usb_device_desc_hs*)
                0x000098e8                        __usb_cfg_descriptor_start_hs = .
 *(.usb_config_desc_hs*)
                0x000098e8                        __usb_interface_descriptor_start_hs = .
 *(.usb_interface_desc_hs*)
                0x000098e8                        __usb_descriptor_end_hs = .
 *(.eh_frame*)
 .eh_frame      0x000098e8        0x0 C:/Program Files (x86)/Arm GNU Toolchain arm-none-eabi/13.3 rel1/bin/../lib/gcc/arm-none-eabi/13.3.1/thumb/v8-m.main+fp/hard/crtbegin.o
 .eh_frame      0x000098e8       0x28 C:/Program Files (x86)/Arm GNU Toolchain arm-none-eabi/13.3 rel1/bin/../lib/gcc/arm-none-eabi/13.3.1/thumb/v8-m.main+fp/hard\libc_nano.a(libc_a-strlen.o)
 .eh_frame      0x00009910        0x4 C:/Program Files (x86)/Arm GNU Toolchain arm-none-eabi/13.3 rel1/bin/../lib/gcc/arm-none-eabi/13.3.1/thumb/v8-m.main+fp/hard/crtend.o
                0x00009914                        __ROM_End = .
                0x000001c0                        __Vectors_Size = (__Vectors_End - __Vectors)

.glue_7         0x00009914        0x0
 .glue_7        0x00009914        0x0 linker stubs

.glue_7t        0x00009914        0x0
 .glue_7t       0x00009914        0x0 linker stubs

.vfp11_veneer   0x00009914        0x0
 .vfp11_veneer  0x00009914        0x0 linker stubs

.v4_bx          0x00009914        0x0
 .v4_bx         0x00009914        0x0 linker stubs

.iplt           0x00009914        0x0
 .iplt          0x00009914        0x0 C:/Program Files (x86)/Arm GNU Toolchain arm-none-eabi/13.3 rel1/bin/../lib/gcc/arm-none-eabi/13.3.1/thumb/v8-m.main+fp/hard/crtbegin.o
                0x00009914                        . = .
                0x00009914                        __itcm_data_pre_location = .

.itcm_data      0x00000000        0x0 load address 0x00009920
                0x00000000                        __tz_ITCM_S = ABSOLUTE (ITCM_START)
                0x00000000                        __itcm_data_start = .
 *(.itcm_data*)
                0x00000000                        . = ALIGN (0x8)
                0x00000000                        __itcm_data_end = .
                0x00000000                        __tz_ITCM_N = DEFINED (ITCM_NS_START)?ABSOLUTE (ITCM_NS_START):ALIGN (__itcm_data_end, 0x2000)
                0x00009920                        __itcm_data_init_start = LOADADDR (.itcm_data)
                0x00009920                        __itcm_data_init_end = (LOADADDR (.itcm_data) + SIZEOF (.itcm_data))
                0x00000001                        ASSERT (((ORIGIN (ITCM) % 0x8) == 0x0), ITCM memory region origin must be aligned to 8 bytes.)
                0x00000001                        ASSERT (((LENGTH (ITCM) % 0x8) == 0x0), ITCM memory region length must be a multiple of 8 bytes.)
                0x00000001                        ASSERT (((LOADADDR (.itcm_data) % 0x10) == 0x0), .itcm_data section must be aligned to 16 bytes.)
                0x00000001                        ASSERT (((SIZEOF (.itcm_data) % 0x8) == 0x0), .itcm_data section size must be a multiple of 8 bytes.)
                0x00009914                        . = (SIZEOF (.itcm_data) > 0x0)?__itcm_data_init_end:__itcm_data_pre_location
                0x00009914                        __exidx_start = .

/DISCARD/
 *(.ARM.extab* .gnu.linkonce.armextab.*)
 *(.ARM.exidx* .gnu.linkonce.armexidx.*)
                0x00009914                        __exidx_end = .
                0x00009914                        __etext = .
                0x20000000                        __tz_RAM_S = ORIGIN (RAM)

.fsp_dtc_vector_table
                0x20000000        0x0
                0x20000000                        . = ORIGIN (RAM)
 *(.fsp_dtc_vector_table)

.data           0x20000000       0x58 load address 0x00009914
                0x20000000                        __data_start__ = .
                0x20000000                        . = ALIGN (0x4)
                0x20000000                        __Code_In_RAM_Start = .
 *(.code_in_ram*)
                0x20000000                        __Code_In_RAM_End = .
 *(vtable)
 *(.data.*)
 .data._impure_ptr
                0x20000000        0x4 C:/Program Files (x86)/Arm GNU Toolchain arm-none-eabi/13.3 rel1/bin/../lib/gcc/arm-none-eabi/13.3.1/thumb/v8-m.main+fp/hard\libg_nano.a(libc_a-impure.o)
                0x20000000                _impure_ptr
 .data._impure_data
                0x20000004       0x4c C:/Program Files (x86)/Arm GNU Toolchain arm-none-eabi/13.3 rel1/bin/../lib/gcc/arm-none-eabi/13.3.1/thumb/v8-m.main+fp/hard\libg_nano.a(libc_a-impure.o)
                0x20000004                _impure_data
 *(.data)
                0x20000050                        . = ALIGN (0x4)
                0x20000050                        PROVIDE (__preinit_array_start = .)
 *(.preinit_array)
                0x20000050                        PROVIDE (__preinit_array_end = .)
                0x20000050                        . = ALIGN (0x4)
                0x20000050                        PROVIDE (__init_array_start = .)
 *(SORT_BY_NAME(.init_array.*))
 *(.init_array)
 .init_array    0x20000050        0x4 C:/Program Files (x86)/Arm GNU Toolchain arm-none-eabi/13.3 rel1/bin/../lib/gcc/arm-none-eabi/13.3.1/thumb/v8-m.main+fp/hard/crtbegin.o
                0x20000054                        PROVIDE (__init_array_end = .)
                0x20000054                        . = ALIGN (0x4)
                [!provide]                        PROVIDE (__fini_array_start = .)
 *(SORT_BY_NAME(.fini_array.*))
 *(.fini_array)
 .fini_array    0x20000054        0x4 C:/Program Files (x86)/Arm GNU Toolchain arm-none-eabi/13.3 rel1/bin/../lib/gcc/arm-none-eabi/13.3.1/thumb/v8-m.main+fp/hard/crtbegin.o
                [!provide]                        PROVIDE (__fini_array_end = .)
 *(.jcr*)
                0x20000058                        . = ALIGN (0x4)
                0x20000058                        __data_end__ = .

.tm_clone_table
                0x20000058        0x0 load address 0x0000996c
 .tm_clone_table
                0x20000058        0x0 C:/Program Files (x86)/Arm GNU Toolchain arm-none-eabi/13.3 rel1/bin/../lib/gcc/arm-none-eabi/13.3.1/thumb/v8-m.main+fp/hard/crtbegin.o
 .tm_clone_table
                0x20000058        0x0 C:/Program Files (x86)/Arm GNU Toolchain arm-none-eabi/13.3 rel1/bin/../lib/gcc/arm-none-eabi/13.3.1/thumb/v8-m.main+fp/hard/crtend.o

.igot.plt       0x20000058        0x0 load address 0x0000996c
 .igot.plt      0x20000058        0x0 C:/Program Files (x86)/Arm GNU Toolchain arm-none-eabi/13.3 rel1/bin/../lib/gcc/arm-none-eabi/13.3.1/thumb/v8-m.main+fp/hard/crtbegin.o
                0x20000058                        . = .
                0x0000996c                        __dtcm_data_pre_location = (LOADADDR (.data) + SIZEOF (.data))

.dtcm_data      0x00000000        0x0 load address 0x00009970
                0x00000000                        __tz_DTCM_S = ABSOLUTE (DTCM_START)
                0x00000000                        __dtcm_data_start = .
 *(.dtcm_data*)
                0x00000000                        . = ALIGN (0x8)
                0x00000000                        __dtcm_data_end = .
                0x00000000                        . = __dtcm_data_end

.dtcm_bss       0x00000000        0x0
                0x00000000                        __dtcm_bss_start = .
 *(.dtcm_bss*)
                0x00000000                        . = ALIGN (0x8)
                0x00000000                        __dtcm_bss_end = .
                0x00000000                        __tz_DTCM_N = DEFINED (DTCM_NS_START)?ABSOLUTE (DTCM_NS_START):ALIGN (__dtcm_bss_end, 0x2000)
                0x00009970                        __dtcm_data_init_start = LOADADDR (.dtcm_data)
                0x00009970                        __dtcm_data_init_end = (LOADADDR (.dtcm_data) + SIZEOF (.dtcm_data))
                0x00000001                        ASSERT (((ORIGIN (DTCM) % 0x8) == 0x0), DTCM memory region origin must be aligned to 8 bytes.)
                0x00000001                        ASSERT (((LENGTH (DTCM) % 0x8) == 0x0), DTCM memory region length must be a multiple of 8 bytes.)
                0x00000001                        ASSERT ((LOADADDR (.dtcm_bss) == ADDR (.dtcm_bss)), .dtcm_bss has (VMA != LMA) but should be NOLOAD (VMA == LMA).)
                0x00000001                        ASSERT (((LOADADDR (.dtcm_data) % 0x10) == 0x0), .dtcm_data section must be aligned to 16 bytes.)
                0x00000001                        ASSERT (((SIZEOF (.dtcm_data) % 0x8) == 0x0), .dtcm_data section size must be a multiple of 8 bytes.)
                0x00000001                        ASSERT (((LOADADDR (.dtcm_bss) % 0x8) == 0x0), .dtcm_bss section must be aligned to 8 bytes.)
                0x00000001                        ASSERT (((SIZEOF (.dtcm_bss) % 0x8) == 0x0), .dtcm_bss section size must be a multiple of 8 bytes.)
                0x00000001                        ASSERT ((__dtcm_bss_start == __dtcm_data_end), .dtcm_bss section is not adjacent to .dtcm_data section.)
                0x0000996c                        . = (SIZEOF (.dtcm_data) > 0x0)?__dtcm_data_init_end:__dtcm_data_pre_location
                0x0000996c                        sgstubs_pre_location = .
                0x00009c00                        SGSTUBS_LOC = (DEFINED (PROJECT_SECURE) && DEFINED (FLASH_NSC_START))?ABSOLUTE (FLASH_NSC_START):ALIGN (0x400)

.gnu.sgstubs    0x00009c00        0x0
                0x00009c00                        __tz_FLASH_C = DEFINED (FLASH_NSC_START)?ABSOLUTE (FLASH_NSC_START):__RESERVE_NS_RAM?ABSOLUTE ((FLASH_START + FLASH_LENGTH)):ALIGN (0x400)
                0x00009c00                        _start_sg = .
 *(.gnu.sgstubs*)
                0x00009c00                        . = ALIGN (0x20)
                0x00009c00                        _end_sg = .
                0x00010000                        __tz_FLASH_N = DEFINED (FLASH_NS_START)?ABSOLUTE (FLASH_NS_START):__RESERVE_NS_RAM?ABSOLUTE ((FLASH_START + FLASH_LENGTH)):(FLASH_LENGTH < 0x8000)?FLASH_LENGTH:ALIGN (0x8000)
                0x00010000                        FLASH_NS_IMAGE_START = DEFINED (FLASH_NS_IMAGE_START)?FLASH_NS_IMAGE_START:__tz_FLASH_N
                0x60000000                        __tz_QSPI_FLASH_S = ORIGIN (QSPI_FLASH)

.qspi_flash     0x60000000        0x0
                0x60000000                        __qspi_flash_start__ = .
 *(.qspi_flash*)
 *(.code_in_qspi*)
                0x60000000                        __qspi_flash_end__ = .
                0x00000000                        __qspi_flash_code_size__ = (__qspi_flash_end__ - __qspi_flash_start__)
                0x0000996c                        __qspi_flash_code_addr__ = sgstubs_pre_location

.qspi_non_retentive
                0x60000000        0x0 load address 0x0000996c
                0x60000000                        __qspi_non_retentive_start__ = .
 *(.qspi_non_retentive*)
                0x60000000                        __qspi_non_retentive_end__ = .
                0x00000000                        __qspi_non_retentive_size__ = (__qspi_non_retentive_end__ - __qspi_non_retentive_start__)
                0x04000000                        __qspi_region_max_size__ = 0x4000000
                0x60000000                        __qspi_region_start_address__ = __qspi_flash_start__
                0x64000000                        __qspi_region_end_address__ = (__qspi_flash_start__ + __qspi_region_max_size__)
                0x60000000                        __tz_QSPI_FLASH_N = __qspi_non_retentive_end__

.OSPI_DEVICE_0_NO_LOAD
                0x80020000        0x0
                0x80020000                        . = ALIGN (0x4)
                0x80020000                        __ospi_device_0_start__ = .
 *(.ospi_device_0_no_load*)
                0x80020000                        . = ALIGN (0x4)
                0x80020000                        __ospi_device_0_end__ = .

.OSPI_DEVICE_1_NO_LOAD
                0x80030000        0x0
                0x80030000                        . = ALIGN (0x4)
                0x80030000                        __ospi_device_1_start__ = .
 *(.ospi_device_1_no_load*)
                0x80030000                        . = ALIGN (0x4)
                0x80030000                        __ospi_device_1_end__ = .
                0x80020000                        __tz_OSPI_DEVICE_0_S = ORIGIN (OSPI_DEVICE_0)

.OSPI_DEVICE_0  0x80020000        0x0
                0x80020000                        __ospi_device_0_start__ = .
 *(.ospi_device_0*)
 *(.code_in_ospi_device_0*)
                0x80020000                        __ospi_device_0_end__ = .
                0x00000000                        __ospi_device_0_code_size__ = (__ospi_device_0_end__ - __ospi_device_0_start__)
                0x0000996c                        __ospi_device_0_code_addr__ = (sgstubs_pre_location + SIZEOF (.qspi_non_retentive))

.ospi_device_0_non_retentive
                0x80020000        0x0 load address 0x0000996c
                0x80020000                        __ospi_device_0_non_retentive_start__ = .
 *(.ospi_device_0_non_retentive*)
                0x80020000                        __ospi_device_0_non_retentive_end__ = .
                0x00000000                        __ospi_device_0_non_retentive_size__ = (__ospi_device_0_non_retentive_end__ - __ospi_device_0_non_retentive_start__)
                0x08000000                        __ospi_device_0_region_max_size__ = 0x8000000
                0x80020000                        __ospi_device_0_region_start_address__ = __ospi_device_0_start__
                0x88020000                        __ospi_device_0_region_end_address__ = (__ospi_device_0_start__ + __ospi_device_0_region_max_size__)
                0x80020000                        __tz_OSPI_DEVICE_0_N = __ospi_device_0_non_retentive_end__
                0x80030000                        __tz_OSPI_DEVICE_1_S = ORIGIN (OSPI_DEVICE_1)

.OSPI_DEVICE_1  0x80030000        0x0
                0x80030000                        __ospi_device_1_start__ = .
 *(.ospi_device_1*)
 *(.code_in_ospi_device_1*)
                0x80030000                        __ospi_device_1_end__ = .
                0x00000000                        __ospi_device_1_code_size__ = (__ospi_device_1_end__ - __ospi_device_1_start__)
                0x0000996c                        __ospi_device_1_code_addr__ = (sgstubs_pre_location + (SIZEOF (.qspi_non_retentive) + SIZEOF (.ospi_device_0_non_retentive)))

.ospi_device_1_non_retentive
                0x80030000        0x0 load address 0x0000996c
                0x80030000                        __ospi_device_1_non_retentive_start__ = .
 *(.ospi_device_1_non_retentive*)
                0x80030000                        __ospi_device_1_non_retentive_end__ = .
                0x00000000                        __ospi_device_1_non_retentive_size__ = (__ospi_device_1_non_retentive_end__ - __ospi_device_1_non_retentive_start__)
                0x10000000                        __ospi_device_1_region_max_size__ = 0x10000000
                0x80030000                        __ospi_device_1_region_start_address__ = __ospi_device_1_start__
                0x90030000                        __ospi_device_1_region_end_address__ = (__ospi_device_1_start__ + __ospi_device_1_region_max_size__)
                0x80030000                        __tz_OSPI_DEVICE_1_N = __ospi_device_1_non_retentive_end__

.noinit         0x20000058       0x20
                0x20000058                        . = ALIGN (0x4)
                0x20000058                        __noinit_start = .
 *(.noinit*)
 .noinit        0x20000058       0x1c ./ra/fsp/src/bsp/mcu/all/bsp_clocks.o
                0x20000078                        . = ALIGN (0x8)
 *fill*         0x20000074        0x4 
 *(.heap.*)
                0x20000078                        __noinit_end = .

.bss            0x20000078     0x1030
                0x20000078                        . = ALIGN (0x4)
                0x20000078                        __bss_start__ = .
 *(.bss*)
 .bss.completed.1
                0x20000078        0x1 C:/Program Files (x86)/Arm GNU Toolchain arm-none-eabi/13.3 rel1/bin/../lib/gcc/arm-none-eabi/13.3.1/thumb/v8-m.main+fp/hard/crtbegin.o
 *fill*         0x20000079        0x3 
 .bss.object.0  0x2000007c       0x18 C:/Program Files (x86)/Arm GNU Toolchain arm-none-eabi/13.3 rel1/bin/../lib/gcc/arm-none-eabi/13.3.1/thumb/v8-m.main+fp/hard/crtbegin.o
 .bss.s_u1_cnt_ics
                0x20000094        0x1 ./src/application/user_interface/ics/r_mtr_ics.o
 *fill*         0x20000095        0x3 
 .bss.com_f4_on_current_th
                0x20000098        0x4 ./src/application/user_interface/ics/r_mtr_ics.o
                0x20000098                com_f4_on_current_th
 .bss.com_f4_active_brake_time
                0x2000009c        0x4 ./src/application/user_interface/ics/r_mtr_ics.o
                0x2000009c                com_f4_active_brake_time
 .bss.com_f4_over_time
                0x200000a0        0x4 ./src/application/user_interface/ics/r_mtr_ics.o
                0x200000a0                com_f4_over_time
 .bss.com_f4_off_time
                0x200000a4        0x4 ./src/application/user_interface/ics/r_mtr_ics.o
                0x200000a4                com_f4_off_time
 .bss.com_f4_restart_speed
                0x200000a8        0x4 ./src/application/user_interface/ics/r_mtr_ics.o
                0x200000a8                com_f4_restart_speed
 .bss.com_f4_input_weight0
                0x200000ac        0x4 ./src/application/user_interface/ics/r_mtr_ics.o
                0x200000ac                com_f4_input_weight0
 .bss.com_f4_input_weight1
                0x200000b0        0x4 ./src/application/user_interface/ics/r_mtr_ics.o
                0x200000b0                com_f4_input_weight1
 .bss.com_f4_input_weight2
                0x200000b4        0x4 ./src/application/user_interface/ics/r_mtr_ics.o
                0x200000b4                com_f4_input_weight2
 .bss.com_f4_output_gain
                0x200000b8        0x4 ./src/application/user_interface/ics/r_mtr_ics.o
                0x200000b8                com_f4_output_gain
 .bss.com_f4_tf_lpf_time
                0x200000bc        0x4 ./src/application/user_interface/ics/r_mtr_ics.o
                0x200000bc                com_f4_tf_lpf_time
 .bss.com_f4_timelead
                0x200000c0        0x4 ./src/application/user_interface/ics/r_mtr_ics.o
                0x200000c0                com_f4_timelead
 .bss.com_u1_flag_trqvib_comp_learning
                0x200000c4        0x1 ./src/application/user_interface/ics/r_mtr_ics.o
                0x200000c4                com_u1_flag_trqvib_comp_learning
 *fill*         0x200000c5        0x3 
 .bss.com_f4_threshold_time
                0x200000c8        0x4 ./src/application/user_interface/ics/r_mtr_ics.o
                0x200000c8                com_f4_threshold_time
 .bss.com_f4_threshold_level
                0x200000cc        0x4 ./src/application/user_interface/ics/r_mtr_ics.o
                0x200000cc                com_f4_threshold_level
 .bss.com_f4_iq_hpf_time
                0x200000d0        0x4 ./src/application/user_interface/ics/r_mtr_ics.o
                0x200000d0                com_f4_iq_hpf_time
 .bss.com_f4_id_hpf_time
                0x200000d4        0x4 ./src/application/user_interface/ics/r_mtr_ics.o
                0x200000d4                com_f4_id_hpf_time
 .bss.com_f4_spd_high_to_low_threshold
                0x200000d8        0x4 ./src/application/user_interface/ics/r_mtr_ics.o
                0x200000d8                com_f4_spd_high_to_low_threshold
 .bss.com_f4_spd_low_to_high_threshold
                0x200000dc        0x4 ./src/application/user_interface/ics/r_mtr_ics.o
                0x200000dc                com_f4_spd_low_to_high_threshold
 .bss.com_f4_extobs_omega
                0x200000e0        0x4 ./src/application/user_interface/ics/r_mtr_ics.o
                0x200000e0                com_f4_extobs_omega
 .bss.com_u1_flag_extobserver_use
                0x200000e4        0x1 ./src/application/user_interface/ics/r_mtr_ics.o
                0x200000e4                com_u1_flag_extobserver_use
 *fill*         0x200000e5        0x3 
 .bss.com_f4_pll_estlow_zeta
                0x200000e8        0x4 ./src/application/user_interface/ics/r_mtr_ics.o
                0x200000e8                com_f4_pll_estlow_zeta
 .bss.com_f4_pll_estlow_omega_hz
                0x200000ec        0x4 ./src/application/user_interface/ics/r_mtr_ics.o
                0x200000ec                com_f4_pll_estlow_omega_hz
 .bss.com_f4_pll_est_zeta
                0x200000f0        0x4 ./src/application/user_interface/ics/r_mtr_ics.o
                0x200000f0                com_f4_pll_est_zeta
 .bss.com_f4_pll_est_omega_hz
                0x200000f4        0x4 ./src/application/user_interface/ics/r_mtr_ics.o
                0x200000f4                com_f4_pll_est_omega_hz
 .bss.com_f4_e_obs_zeta
                0x200000f8        0x4 ./src/application/user_interface/ics/r_mtr_ics.o
                0x200000f8                com_f4_e_obs_zeta
 .bss.com_f4_e_obs_omega_hz
                0x200000fc        0x4 ./src/application/user_interface/ics/r_mtr_ics.o
                0x200000fc                com_f4_e_obs_omega_hz
 .bss.com_u1_flag_trq_vibration_comp_use
                0x20000100        0x1 ./src/application/user_interface/ics/r_mtr_ics.o
                0x20000100                com_u1_flag_trq_vibration_comp_use
 .bss.com_u1_flag_stall_detection_use
                0x20000101        0x1 ./src/application/user_interface/ics/r_mtr_ics.o
                0x20000101                com_u1_flag_stall_detection_use
 .bss.com_u1_flag_flying_start_use
                0x20000102        0x1 ./src/application/user_interface/ics/r_mtr_ics.o
                0x20000102                com_u1_flag_flying_start_use
 .bss.com_u1_flag_mtpa_use
                0x20000103        0x1 ./src/application/user_interface/ics/r_mtr_ics.o
                0x20000103                com_u1_flag_mtpa_use
 .bss.com_u1_flag_fluxwkn_use
                0x20000104        0x1 ./src/application/user_interface/ics/r_mtr_ics.o
                0x20000104                com_u1_flag_fluxwkn_use
 .bss.com_u1_flag_volt_err_comp_use
                0x20000105        0x1 ./src/application/user_interface/ics/r_mtr_ics.o
                0x20000105                com_u1_flag_volt_err_comp_use
 *fill*         0x20000106        0x2 
 .bss.com_f4_overspeed_limit_rpm
                0x20000108        0x4 ./src/application/user_interface/ics/r_mtr_ics.o
                0x20000108                com_f4_overspeed_limit_rpm
 .bss.com_f4_speed_rate_limit_rpm
                0x2000010c        0x4 ./src/application/user_interface/ics/r_mtr_ics.o
                0x2000010c                com_f4_speed_rate_limit_rpm
 .bss.com_f4_ref_speed_rpm
                0x20000110        0x4 ./src/application/user_interface/ics/r_mtr_ics.o
                0x20000110                com_f4_ref_speed_rpm
 .bss.com_f4_speed_lpf_hz
                0x20000114        0x4 ./src/application/user_interface/ics/r_mtr_ics.o
                0x20000114                com_f4_speed_lpf_hz
 .bss.com_f4_speed_zeta
                0x20000118        0x4 ./src/application/user_interface/ics/r_mtr_ics.o
                0x20000118                com_f4_speed_zeta
 .bss.com_f4_speed_omega_hz
                0x2000011c        0x4 ./src/application/user_interface/ics/r_mtr_ics.o
                0x2000011c                com_f4_speed_omega_hz
 .bss.com_f4_current_zeta
                0x20000120        0x4 ./src/application/user_interface/ics/r_mtr_ics.o
                0x20000120                com_f4_current_zeta
 .bss.com_f4_current_omega_hz
                0x20000124        0x4 ./src/application/user_interface/ics/r_mtr_ics.o
                0x20000124                com_f4_current_omega_hz
 .bss.com_u1_ctrl_loop_mode
                0x20000128        0x1 ./src/application/user_interface/ics/r_mtr_ics.o
                0x20000128                com_u1_ctrl_loop_mode
 *fill*         0x20000129        0x3 
 .bss.com_f4_max_speed_rpm
                0x2000012c        0x4 ./src/application/user_interface/ics/r_mtr_ics.o
                0x2000012c                com_f4_max_speed_rpm
 .bss.com_f4_nominal_current_rms
                0x20000130        0x4 ./src/application/user_interface/ics/r_mtr_ics.o
                0x20000130                com_f4_nominal_current_rms
 .bss.com_f4_mtr_j
                0x20000134        0x4 ./src/application/user_interface/ics/r_mtr_ics.o
                0x20000134                com_f4_mtr_j
 .bss.com_f4_mtr_m
                0x20000138        0x4 ./src/application/user_interface/ics/r_mtr_ics.o
                0x20000138                com_f4_mtr_m
 .bss.com_f4_mtr_lq
                0x2000013c        0x4 ./src/application/user_interface/ics/r_mtr_ics.o
                0x2000013c                com_f4_mtr_lq
 .bss.com_f4_mtr_ld
                0x20000140        0x4 ./src/application/user_interface/ics/r_mtr_ics.o
                0x20000140                com_f4_mtr_ld
 .bss.com_f4_mtr_r
                0x20000144        0x4 ./src/application/user_interface/ics/r_mtr_ics.o
                0x20000144                com_f4_mtr_r
 .bss.com_u2_mtr_pp
                0x20000148        0x2 ./src/application/user_interface/ics/r_mtr_ics.o
                0x20000148                com_u2_mtr_pp
 .bss.com_u2_offset_calc_time
                0x2000014a        0x2 ./src/application/user_interface/ics/r_mtr_ics.o
                0x2000014a                com_u2_offset_calc_time
 .bss.g_u1_enable_write
                0x2000014c        0x1 ./src/application/user_interface/ics/r_mtr_ics.o
                0x2000014c                g_u1_enable_write
 .bss.com_u1_enable_write
                0x2000014d        0x1 ./src/application/user_interface/ics/r_mtr_ics.o
                0x2000014d                com_u1_enable_write
 .bss.g_u1_system_mode
                0x2000014e        0x1 ./src/application/user_interface/ics/r_mtr_ics.o
                0x2000014e                g_u1_system_mode
 .bss.com_u1_system_mode
                0x2000014f        0x1 ./src/application/user_interface/ics/r_mtr_ics.o
                0x2000014f                com_u1_system_mode
 .bss.g_u1_update_param_flag
                0x20000150        0x1 ./src/application/user_interface/ics/r_mtr_ics.o
                0x20000150                g_u1_update_param_flag
 *fill*         0x20000151        0x3 
 .bss.g_st_rmw_input_buffer
                0x20000154       0xb4 ./src/application/user_interface/ics/r_mtr_ics.o
                0x20000154                g_st_rmw_input_buffer
 .bss.g_u1_conf_inverter
                0x20000208        0x8 ./src/application/user_interface/ics/r_mtr_ics.o
                0x20000208                g_u1_conf_inverter
 .bss.g_u1_conf_control
                0x20000210       0x29 ./src/application/user_interface/ics/r_mtr_ics.o
                0x20000210                g_u1_conf_control
 *fill*         0x20000239        0x3 
 .bss.g_u1_conf_motor_type
                0x2000023c       0x12 ./src/application/user_interface/ics/r_mtr_ics.o
                0x2000023c                g_u1_conf_motor_type
 .bss.g_u1_conf_inverter_len
                0x2000024e        0x1 ./src/application/user_interface/ics/r_mtr_ics.o
                0x2000024e                g_u1_conf_inverter_len
 .bss.g_u1_conf_control_len
                0x2000024f        0x1 ./src/application/user_interface/ics/r_mtr_ics.o
                0x2000024f                g_u1_conf_control_len
 .bss.g_u1_conf_motor_type_len
                0x20000250        0x1 ./src/application/user_interface/ics/r_mtr_ics.o
                0x20000250                g_u1_conf_motor_type_len
 *fill*         0x20000251        0x1 
 .bss.g_u2_conf_tool
                0x20000252        0x2 ./src/application/user_interface/ics/r_mtr_ics.o
                0x20000252                g_u2_conf_tool
 .bss.g_u2_conf_sw
                0x20000254        0x2 ./src/application/user_interface/ics/r_mtr_ics.o
                0x20000254                g_u2_conf_sw
 .bss.g_u2_conf_hw
                0x20000256        0x2 ./src/application/user_interface/ics/r_mtr_ics.o
                0x20000256                g_u2_conf_hw
 .bss.g_st_sc   0x20000258       0xf4 ./src/application/motor_module/speed/r_motor_speed_api.o
                0x20000258                g_st_sc
 .bss.g_st_sensorless_vector
                0x2000034c      0x13c ./src/application/motor_module/sensorless_vector/r_motor_sensorless_vector_api.o
                0x2000034c                g_st_sensorless_vector
 .bss.g_st_driver
                0x20000488       0x28 ./src/application/motor_module/driver/r_motor_driver.o
                0x20000488                g_st_driver
 .bss.g_u1_trq_vibration_comp_update_flag
                0x200004b0        0x1 ./src/application/motor_module/current/r_motor_current_api.o
                0x200004b0                g_u1_trq_vibration_comp_update_flag
 *fill*         0x200004b1        0x3 
 .bss.g_st_cc   0x200004b4      0x710 ./src/application/motor_module/current/r_motor_current_api.o
                0x200004b4                g_st_cc
 .bss.g_ioport_ctrl
                0x20000bc4        0x8 ./ra_gen/common_data.o
                0x20000bc4                g_ioport_ctrl
 .bss.g_adc0_ctrl
                0x20000bcc       0x28 ./ra_gen/hal_data.o
                0x20000bcc                g_adc0_ctrl
 .bss.g_three_phase0_ctrl
                0x20000bf4       0x1c ./ra_gen/hal_data.o
                0x20000bf4                g_three_phase0_ctrl
 .bss.g_timer_gpt4_ctrl
                0x20000c10       0x20 ./ra_gen/hal_data.o
                0x20000c10                g_timer_gpt4_ctrl
 .bss.g_timer_gpt5_ctrl
                0x20000c30       0x20 ./ra_gen/hal_data.o
                0x20000c30                g_timer_gpt5_ctrl
 .bss.g_timer_gpt6_ctrl
                0x20000c50       0x20 ./ra_gen/hal_data.o
                0x20000c50                g_timer_gpt6_ctrl
 .bss.g_poeg3_ctrl
                0x20000c70       0x18 ./ra_gen/hal_data.o
                0x20000c70                g_poeg3_ctrl
 .bss.g_agt0_ctrl
                0x20000c88       0x20 ./ra_gen/hal_data.o
                0x20000c88                g_agt0_ctrl
 .bss.g_timer_gpt1_ctrl
                0x20000ca8       0x20 ./ra_gen/hal_data.o
                0x20000ca8                g_timer_gpt1_ctrl
 .bss.g_agt1_ctrl
                0x20000cc8       0x20 ./ra_gen/hal_data.o
                0x20000cc8                g_agt1_ctrl
 .bss.gp_prv_agt_periods
                0x20000ce8        0x8 ./ra/fsp/src/r_agt/r_agt.o
 .bss.g_bsp_group_irq_sources
                0x20000cf0       0x40 ./ra/fsp/src/bsp/mcu/all/bsp_group_irq.o
                0x20000cf0                g_bsp_group_irq_sources
 .bss.g_protect_pfswe_counter
                0x20000d30        0x4 ./ra/fsp/src/bsp/mcu/all/bsp_io.o
                0x20000d30                g_protect_pfswe_counter
 .bss.gp_renesas_isr_context
                0x20000d34      0x180 ./ra/fsp/src/bsp/mcu/all/bsp_irq.o
                0x20000d34                gp_renesas_isr_context
 .bss.g_protect_counters
                0x20000eb4        0x8 ./ra/fsp/src/bsp/mcu/all/bsp_register_protection.o
                0x20000eb4                g_protect_counters
 .bss.SystemCoreClock
                0x20000ebc        0x4 ./ra/fsp/src/bsp/cmsis/Device/RENESAS/Source/system.o
                0x20000ebc                SystemCoreClock
 .bss.ics_buf2nd
                0x20000ec0       0x20 C:/Users/a5143778/Documents/MC_Greece/MC_Greece/RA6T2_MCIHV1_IPM_LESS_FOC_WHOLE_PFC_E2S_V100/src/application/user_interface/ics/ICS2_RA6T2.o(ICS2_RA6T2.o)
 .bss.ics_data1
                0x20000ee0        0x4 C:/Users/a5143778/Documents/MC_Greece/MC_Greece/RA6T2_MCIHV1_IPM_LESS_FOC_WHOLE_PFC_E2S_V100/src/application/user_interface/ics/ICS2_RA6T2.o(ICS2_RA6T2.o)
 .bss.ics_data2
                0x20000ee4        0x4 C:/Users/a5143778/Documents/MC_Greece/MC_Greece/RA6T2_MCIHV1_IPM_LESS_FOC_WHOLE_PFC_E2S_V100/src/application/user_interface/ics/ICS2_RA6T2.o(ICS2_RA6T2.o)
 .bss.ics_even  0x20000ee8        0x1 C:/Users/a5143778/Documents/MC_Greece/MC_Greece/RA6T2_MCIHV1_IPM_LESS_FOC_WHOLE_PFC_E2S_V100/src/application/user_interface/ics/ICS2_RA6T2.o(ICS2_RA6T2.o)
 .bss.ics_port_h4
                0x20000ee9        0x1 C:/Users/a5143778/Documents/MC_Greece/MC_Greece/RA6T2_MCIHV1_IPM_LESS_FOC_WHOLE_PFC_E2S_V100/src/application/user_interface/ics/ICS2_RA6T2.o(ICS2_RA6T2.o)
 .bss.ics_rcom  0x20000eea        0x1 C:/Users/a5143778/Documents/MC_Greece/MC_Greece/RA6T2_MCIHV1_IPM_LESS_FOC_WHOLE_PFC_E2S_V100/src/application/user_interface/ics/ICS2_RA6T2.o(ICS2_RA6T2.o)
 .bss.ics_rsum  0x20000eeb        0x1 C:/Users/a5143778/Documents/MC_Greece/MC_Greece/RA6T2_MCIHV1_IPM_LESS_FOC_WHOLE_PFC_E2S_V100/src/application/user_interface/ics/ICS2_RA6T2.o(ICS2_RA6T2.o)
 .bss.ics_rx_cnt
                0x20000eec        0x1 C:/Users/a5143778/Documents/MC_Greece/MC_Greece/RA6T2_MCIHV1_IPM_LESS_FOC_WHOLE_PFC_E2S_V100/src/application/user_interface/ics/ICS2_RA6T2.o(ICS2_RA6T2.o)
 .bss.ics_tmode
                0x20000eed        0x1 C:/Users/a5143778/Documents/MC_Greece/MC_Greece/RA6T2_MCIHV1_IPM_LESS_FOC_WHOLE_PFC_E2S_V100/src/application/user_interface/ics/ICS2_RA6T2.o(ICS2_RA6T2.o)
 *fill*         0x20000eee        0x2 
 .bss.ics_tx    0x20000ef0       0x14 C:/Users/a5143778/Documents/MC_Greece/MC_Greece/RA6T2_MCIHV1_IPM_LESS_FOC_WHOLE_PFC_E2S_V100/src/application/user_interface/ics/ICS2_RA6T2.o(ICS2_RA6T2.o)
 .bss.ics_waddr
                0x20000f04       0x30 C:/Users/a5143778/Documents/MC_Greece/MC_Greece/RA6T2_MCIHV1_IPM_LESS_FOC_WHOLE_PFC_E2S_V100/src/application/user_interface/ics/ICS2_RA6T2.o(ICS2_RA6T2.o)
 .bss.ics_wready
                0x20000f34        0x2 C:/Users/a5143778/Documents/MC_Greece/MC_Greece/RA6T2_MCIHV1_IPM_LESS_FOC_WHOLE_PFC_E2S_V100/src/application/user_interface/ics/ICS2_RA6T2.o(ICS2_RA6T2.o)
 *fill*         0x20000f36        0x2 
 .bss.wbuf      0x20000f38       0x14 C:/Users/a5143778/Documents/MC_Greece/MC_Greece/RA6T2_MCIHV1_IPM_LESS_FOC_WHOLE_PFC_E2S_V100/src/application/user_interface/ics/ICS2_RA6T2.o(ICS2_RA6T2.o)
 .bss.g_f4_stalldet_iq_hbf_abs_sum
                0x20000f4c        0x4 C:\Users\a5143778\Documents\MC_Greece\MC_Greece\RA6T2_MCIHV1_IPM_LESS_FOC_WHOLE_PFC_E2S_V100\src\application\motor_module\current\libr_motor_current_stall_detection.a(r_motor_current_stall_detection.o)
                0x20000f4c                g_f4_stalldet_iq_hbf_abs_sum
 .bss.g_f4_stalldet_id_hbf_abs_sum
                0x20000f50        0x4 C:\Users\a5143778\Documents\MC_Greece\MC_Greece\RA6T2_MCIHV1_IPM_LESS_FOC_WHOLE_PFC_E2S_V100\src\application\motor_module\current\libr_motor_current_stall_detection.a(r_motor_current_stall_detection.o)
                0x20000f50                g_f4_stalldet_id_hbf_abs_sum
 .bss.g_f4_stalldet_iq_ave
                0x20000f54        0x4 C:\Users\a5143778\Documents\MC_Greece\MC_Greece\RA6T2_MCIHV1_IPM_LESS_FOC_WHOLE_PFC_E2S_V100\src\application\motor_module\current\libr_motor_current_stall_detection.a(r_motor_current_stall_detection.o)
                0x20000f54                g_f4_stalldet_iq_ave
 .bss.g_f4_stalldet_id_ave
                0x20000f58        0x4 C:\Users\a5143778\Documents\MC_Greece\MC_Greece\RA6T2_MCIHV1_IPM_LESS_FOC_WHOLE_PFC_E2S_V100\src\application\motor_module\current\libr_motor_current_stall_detection.a(r_motor_current_stall_detection.o)
                0x20000f58                g_f4_stalldet_id_ave
 .bss.g_s2_last_index
                0x20000f5c        0x6 C:\Users\a5143778\Documents\MC_Greece\MC_Greece\RA6T2_MCIHV1_IPM_LESS_FOC_WHOLE_PFC_E2S_V100\src\application\motor_module\current\libr_motor_current_trq_vib_comp.a(r_motor_current_trq_vib_comp.o)
                0x20000f5c                g_s2_last_index
 *fill*         0x20000f62        0x2 
 .bss.g_f4_last_values
                0x20000f64        0xc C:\Users\a5143778\Documents\MC_Greece\MC_Greece\RA6T2_MCIHV1_IPM_LESS_FOC_WHOLE_PFC_E2S_V100\src\application\motor_module\current\libr_motor_current_trq_vib_comp.a(r_motor_current_trq_vib_comp.o)
                0x20000f64                g_f4_last_values
 .bss.__sf      0x20000f70      0x138 C:/Program Files (x86)/Arm GNU Toolchain arm-none-eabi/13.3 rel1/bin/../lib/gcc/arm-none-eabi/13.3.1/thumb/v8-m.main+fp/hard\libg_nano.a(libc_a-findfp.o)
                0x20000f70                __sf
 *(COMMON)
                0x200010a8                        . = ALIGN (0x4)
                0x200010a8                        __bss_end__ = .

.heap           0x200010a8        0x0
                0x200010a8                        . = ALIGN (0x8)
                0x200010a8                        __HeapBase = .
 *(.heap)
                0x200010a8                        __HeapLimit = .

.stack_dummy    0x200010a8      0x400
                0x200010a8                        . = ALIGN (0x8)
                0x200010a8                        __StackLimit = .
 *(.stack)
 .stack         0x200010a8      0x400 ./ra/fsp/src/bsp/cmsis/Device/RENESAS/Source/startup.o
                0x200014a8                        __StackTop = .
 *(.stack*)
                0x200014a8                        __StackTopAll = .
                0x200014a8                        PROVIDE (__stack = __StackTopAll)
                0x200014a8                        __RAM_segment_used_end__ = ALIGN (__StackTopAll, 0x4)
                0x20001800                        __tz_RAM_C = DEFINED (RAM_NSC_START)?ABSOLUTE ((RAM_NSC_START - RAM_NS_BUFFER_BLOCK_LENGTH)):__RESERVE_NS_RAM?ABSOLUTE (RAM_NS_BUFFER_BLOCK_START):ALIGN (__RAM_segment_used_end__, 0x400)
                0x20002000                        __tz_RAM_N = DEFINED (RAM_NS_START)?ABSOLUTE ((RAM_NS_START - RAM_NS_BUFFER_BLOCK_LENGTH)):__RESERVE_NS_RAM?ABSOLUTE (RAM_NS_BUFFER_BLOCK_START):ALIGN (__tz_RAM_C, 0x2000)

.ns_buffer      0x200014a8        0x0
                0x200014a8                        . = __RESERVE_NS_RAM?ABSOLUTE ((RAM_NS_BUFFER_START & 0xffffffe0)):.
 *(.ns_buffer*)

.data_flash     0x08000000        0x0
                0x08000000                        . = ORIGIN (DATA_FLASH)
                0x08000000                        __tz_DATA_FLASH_S = .
                0x08000000                        __Data_Flash_Start = .
 *(.data_flash*)
                0x08000000                        __Data_Flash_End = .
                0x08000000                        __tz_DATA_FLASH_N = DEFINED (DATA_FLASH_NS_START)?ABSOLUTE (DATA_FLASH_NS_START):__RESERVE_NS_RAM?ABSOLUTE ((DATA_FLASH_START + DATA_FLASH_LENGTH)):ALIGN (0x400)
                0x80010000                        __tz_SDRAM_S = ORIGIN (SDRAM)

.sdram          0x80010000        0x0
                0x80010000                        __SDRAM_Start = .
 *(.sdram*)
 *(.frame*)
                0x80010000                        __SDRAM_End = .
                0x80010000                        __tz_SDRAM_N = __SDRAM_End
                0x00000000                        __tz_ID_CODE_S = ORIGIN (ID_CODE)
                0x00000000                        __tz_ID_CODE_N = __tz_ID_CODE_S

.id_code        0x00000000        0x0
                0x00000000                        __ID_Code_Start = .
 *(.id_code*)
                0x00000000                        __ID_Code_End = .
                0x0100a100                        __tz_OPTION_SETTING_S = ORIGIN (OPTION_SETTING_OFS)

.option_setting_ofs
                0x0100a100       0x10
                0x0100a100                        __OPTION_SETTING_OFS_Start = .
 *(.option_setting_ofs0)
 .option_setting_ofs0
                0x0100a100        0x4 ./ra/fsp/src/bsp/mcu/all/bsp_rom_registers.o
                0x0100a104                        . = PROJECT_SECURE_OR_FLAT?(__OPTION_SETTING_OFS_Start + 0x4):__OPTION_SETTING_OFS_Start
 *(.option_setting_ofs2)
                0x0100a110                        . = PROJECT_SECURE_OR_FLAT?(__OPTION_SETTING_OFS_Start + 0x10):__OPTION_SETTING_OFS_Start
 *fill*         0x0100a104        0xc ff
 *(.option_setting_dualsel)
                0x0100a110                        __OPTION_SETTING_OFS_End = .

.option_setting_sas
                0x0100a134        0x4
                0x0100a134                        __OPTION_SETTING_SAS_Start = .
 *(.option_setting_sas)
 .option_setting_sas
                0x0100a134        0x4 ./ra/fsp/src/bsp/mcu/all/bsp_rom_registers.o
                0x0100a138                        __OPTION_SETTING_SAS_End = .
                0x0100a180                        __tz_OPTION_SETTING_N = ABSOLUTE (OPTION_SETTING_START_NS)

.option_setting_ns
                0x0100a100        0x0
                0x0100a100                        __OPTION_SETTING_NS_Start = .
 *(.option_setting_ofs1)
                0x0100a100                        . = USE_OPTION_SETTING_NS?(__OPTION_SETTING_NS_Start + 0x4):__OPTION_SETTING_NS_Start
 *(.option_setting_ofs3)
                0x0100a100                        . = USE_OPTION_SETTING_NS?(__OPTION_SETTING_NS_Start + 0x10):__OPTION_SETTING_NS_Start
 *(.option_setting_banksel)
                0x0100a100                        . = USE_OPTION_SETTING_NS?(__OPTION_SETTING_NS_Start + 0x40):__OPTION_SETTING_NS_Start
 *(.option_setting_bps0)
                0x0100a100                        . = USE_OPTION_SETTING_NS?(__OPTION_SETTING_NS_Start + 0x44):__OPTION_SETTING_NS_Start
 *(.option_setting_bps1)
                0x0100a100                        . = USE_OPTION_SETTING_NS?(__OPTION_SETTING_NS_Start + 0x48):__OPTION_SETTING_NS_Start
 *(.option_setting_bps2)
                0x0100a100                        . = USE_OPTION_SETTING_NS?(__OPTION_SETTING_NS_Start + 0x4c):__OPTION_SETTING_NS_Start
 *(.option_setting_bps3)
                0x0100a100                        . = USE_OPTION_SETTING_NS?(__OPTION_SETTING_NS_Start + 0x60):__OPTION_SETTING_NS_Start
 *(.option_setting_pbps0)
                0x0100a100                        . = USE_OPTION_SETTING_NS?(__OPTION_SETTING_NS_Start + 0x64):__OPTION_SETTING_NS_Start
 *(.option_setting_pbps1)
                0x0100a100                        . = USE_OPTION_SETTING_NS?(__OPTION_SETTING_NS_Start + 0x68):__OPTION_SETTING_NS_Start
 *(.option_setting_pbps2)
                0x0100a100                        . = USE_OPTION_SETTING_NS?(__OPTION_SETTING_NS_Start + 0x6c):__OPTION_SETTING_NS_Start
 *(.option_setting_pbps3)
                0x0100a100                        __OPTION_SETTING_NS_End = .
                0x0100a200                        __tz_OPTION_SETTING_S_S = ORIGIN (OPTION_SETTING_S)

.option_setting_s
                0x0100a200       0xd0
                0x0100a200                        __OPTION_SETTING_S_Start = .
 *(.option_setting_ofs1_sec)
 .option_setting_ofs1_sec
                0x0100a200        0x4 ./ra/fsp/src/bsp/mcu/all/bsp_rom_registers.o
                0x0100a204                        . = PROJECT_SECURE_OR_FLAT?(__OPTION_SETTING_S_Start + 0x4):__OPTION_SETTING_S_Start
 *(.option_setting_ofs3_sec)
                0x0100a210                        . = PROJECT_SECURE_OR_FLAT?(__OPTION_SETTING_S_Start + 0x10):__OPTION_SETTING_S_Start
 *fill*         0x0100a204        0xc ff
 *(.option_setting_banksel_sec)
 .option_setting_banksel_sec
                0x0100a210        0x4 ./ra/fsp/src/bsp/mcu/all/bsp_rom_registers.o
                0x0100a240                        . = PROJECT_SECURE_OR_FLAT?(__OPTION_SETTING_S_Start + 0x40):__OPTION_SETTING_S_Start
 *fill*         0x0100a214       0x2c ff
 *(.option_setting_bps_sec0)
 .option_setting_bps_sec0
                0x0100a240        0x4 ./ra/fsp/src/bsp/mcu/all/bsp_rom_registers.o
                0x0100a244                        . = PROJECT_SECURE_OR_FLAT?(__OPTION_SETTING_S_Start + 0x44):__OPTION_SETTING_S_Start
 *(.option_setting_bps_sec1)
 .option_setting_bps_sec1
                0x0100a244        0x4 ./ra/fsp/src/bsp/mcu/all/bsp_rom_registers.o
                0x0100a248                        . = PROJECT_SECURE_OR_FLAT?(__OPTION_SETTING_S_Start + 0x48):__OPTION_SETTING_S_Start
 *(.option_setting_bps_sec2)
 .option_setting_bps_sec2
                0x0100a248        0x4 ./ra/fsp/src/bsp/mcu/all/bsp_rom_registers.o
                0x0100a24c                        . = PROJECT_SECURE_OR_FLAT?(__OPTION_SETTING_S_Start + 0x4c):__OPTION_SETTING_S_Start
 *(.option_setting_bps_sec3)
 .option_setting_bps_sec3
                0x0100a24c        0x4 ./ra/fsp/src/bsp/mcu/all/bsp_rom_registers.o
                0x0100a260                        . = PROJECT_SECURE_OR_FLAT?(__OPTION_SETTING_S_Start + 0x60):__OPTION_SETTING_S_Start
 *fill*         0x0100a250       0x10 ff
 *(.option_setting_pbps_sec0)
 .option_setting_pbps_sec0
                0x0100a260        0x4 ./ra/fsp/src/bsp/mcu/all/bsp_rom_registers.o
                0x0100a264                        . = PROJECT_SECURE_OR_FLAT?(__OPTION_SETTING_S_Start + 0x64):__OPTION_SETTING_S_Start
 *(.option_setting_pbps_sec1)
 .option_setting_pbps_sec1
                0x0100a264        0x4 ./ra/fsp/src/bsp/mcu/all/bsp_rom_registers.o
                0x0100a268                        . = PROJECT_SECURE_OR_FLAT?(__OPTION_SETTING_S_Start + 0x68):__OPTION_SETTING_S_Start
 *(.option_setting_pbps_sec2)
 .option_setting_pbps_sec2
                0x0100a268        0x4 ./ra/fsp/src/bsp/mcu/all/bsp_rom_registers.o
                0x0100a26c                        . = PROJECT_SECURE_OR_FLAT?(__OPTION_SETTING_S_Start + 0x6c):__OPTION_SETTING_S_Start
 *(.option_setting_pbps_sec3)
 .option_setting_pbps_sec3
                0x0100a26c        0x4 ./ra/fsp/src/bsp/mcu/all/bsp_rom_registers.o
                0x0100a280                        . = PROJECT_SECURE_OR_FLAT?(__OPTION_SETTING_S_Start + 0x80):__OPTION_SETTING_S_Start
 *fill*         0x0100a270       0x10 ff
 *(.option_setting_ofs1_sel)
 .option_setting_ofs1_sel
                0x0100a280        0x4 ./ra/fsp/src/bsp/mcu/all/bsp_rom_registers.o
                0x0100a284                        . = PROJECT_SECURE_OR_FLAT?(__OPTION_SETTING_S_Start + 0x84):__OPTION_SETTING_S_Start
 *(.option_setting_ofs3_sel)
                0x0100a290                        . = PROJECT_SECURE_OR_FLAT?(__OPTION_SETTING_S_Start + 0x90):__OPTION_SETTING_S_Start
 *fill*         0x0100a284        0xc ff
 *(.option_setting_banksel_sel)
                0x0100a2c0                        . = PROJECT_SECURE_OR_FLAT?(__OPTION_SETTING_S_Start + 0xc0):__OPTION_SETTING_S_Start
 *fill*         0x0100a290       0x30 ff
 *(.option_setting_bps_sel0)
 .option_setting_bps_sel0
                0x0100a2c0        0x4 ./ra/fsp/src/bsp/mcu/all/bsp_rom_registers.o
                0x0100a2c4                        . = PROJECT_SECURE_OR_FLAT?(__OPTION_SETTING_S_Start + 0xc4):__OPTION_SETTING_S_Start
 *(.option_setting_bps_sel1)
 .option_setting_bps_sel1
                0x0100a2c4        0x4 ./ra/fsp/src/bsp/mcu/all/bsp_rom_registers.o
                0x0100a2c8                        . = PROJECT_SECURE_OR_FLAT?(__OPTION_SETTING_S_Start + 0xc8):__OPTION_SETTING_S_Start
 *(.option_setting_bps_sel2)
 .option_setting_bps_sel2
                0x0100a2c8        0x4 ./ra/fsp/src/bsp/mcu/all/bsp_rom_registers.o
                0x0100a2cc                        . = PROJECT_SECURE_OR_FLAT?(__OPTION_SETTING_S_Start + 0xcc):__OPTION_SETTING_S_Start
 *(.option_setting_bps_sel3)
 .option_setting_bps_sel3
                0x0100a2cc        0x4 ./ra/fsp/src/bsp/mcu/all/bsp_rom_registers.o
                0x0100a2d0                        __OPTION_SETTING_S_End = .
                0x0100a2d0                        __tz_OPTION_SETTING_S_N = __OPTION_SETTING_S_End
OUTPUT(RA6T2_MCIHV1_IPM_LESS_FOC_WHOLE_PFC_E2S_V100.elf elf32-littlearm)
LOAD linker stubs

.rel.dyn        0x0100a2d0        0x0
 .rel.iplt      0x0100a2d0        0x0 C:/Program Files (x86)/Arm GNU Toolchain arm-none-eabi/13.3 rel1/bin/../lib/gcc/arm-none-eabi/13.3.1/thumb/v8-m.main+fp/hard/crtbegin.o

.ARM.attributes
                0x00000000       0x36
 .ARM.attributes
                0x00000000       0x26 C:/Program Files (x86)/Arm GNU Toolchain arm-none-eabi/13.3 rel1/bin/../lib/gcc/arm-none-eabi/13.3.1/thumb/v8-m.main+fp/hard/crti.o
 .ARM.attributes
                0x00000026       0x38 C:/Program Files (x86)/Arm GNU Toolchain arm-none-eabi/13.3 rel1/bin/../lib/gcc/arm-none-eabi/13.3.1/thumb/v8-m.main+fp/hard/crtbegin.o
 .ARM.attributes
                0x0000005e       0x3a ./src/application/user_interface/ics/r_mtr_ics.o
 .ARM.attributes
                0x00000098       0x3a ./src/application/system_module/system_manager/r_system_manager_api.o
 .ARM.attributes
                0x000000d2       0x3a ./src/application/motor_module/speed/r_motor_speed.o
 .ARM.attributes
                0x0000010c       0x3a ./src/application/motor_module/speed/r_motor_speed_api.o
 .ARM.attributes
                0x00000146       0x3a ./src/application/motor_module/speed/r_motor_speed_mtpa.o
 .ARM.attributes
                0x00000180       0x3a ./src/application/motor_module/speed/r_motor_speed_pi_gain_calc.o
 .ARM.attributes
                0x000001ba       0x3a ./src/application/motor_module/sensorless_vector/r_motor_sensorless_vector_action.o
 .ARM.attributes
                0x000001f4       0x3a ./src/application/motor_module/sensorless_vector/r_motor_sensorless_vector_api.o
 .ARM.attributes
                0x0000022e       0x3a ./src/application/motor_module/sensorless_vector/r_motor_sensorless_vector_manager.o
 .ARM.attributes
                0x00000268       0x3a ./src/application/motor_module/sensorless_vector/r_motor_sensorless_vector_protection.o
 .ARM.attributes
                0x000002a2       0x3a ./src/application/motor_module/sensorless_vector/r_motor_sensorless_vector_statemachine.o
 .ARM.attributes
                0x000002dc       0x3a ./src/application/motor_module/general/r_motor_filter.o
 .ARM.attributes
                0x00000316       0x3a ./src/application/motor_module/general/r_motor_pi_control.o
 .ARM.attributes
                0x00000350       0x3a ./src/application/motor_module/driver/r_motor_driver.o
 .ARM.attributes
                0x0000038a       0x3a ./src/application/motor_module/driver/r_motor_driver_fsp.o
 .ARM.attributes
                0x000003c4       0x3a ./src/application/motor_module/current/r_motor_current.o
 .ARM.attributes
                0x000003fe       0x3a ./src/application/motor_module/current/r_motor_current_api.o
 .ARM.attributes
                0x00000438       0x3a ./src/application/motor_module/current/r_motor_current_modulation.o
 .ARM.attributes
                0x00000472       0x3a ./src/application/motor_module/current/r_motor_current_pi_gain_calc.o
 .ARM.attributes
                0x000004ac       0x3a ./src/application/main/mtr_main.o
 .ARM.attributes
                0x000004e6       0x3a ./src/hal_entry.o
 .ARM.attributes
                0x00000520       0x3a ./ra_gen/common_data.o
 .ARM.attributes
                0x0000055a       0x3a ./ra_gen/hal_data.o
 .ARM.attributes
                0x00000594       0x3a ./ra_gen/main.o
 .ARM.attributes
                0x000005ce       0x3a ./ra_gen/pin_data.o
 .ARM.attributes
                0x00000608       0x3a ./ra_gen/vector_data.o
 .ARM.attributes
                0x00000642       0x3a ./ra/fsp/src/r_poeg/r_poeg.o
 .ARM.attributes
                0x0000067c       0x3a ./ra/fsp/src/r_ioport/r_ioport.o
 .ARM.attributes
                0x000006b6       0x3a ./ra/fsp/src/r_gpt_three_phase/r_gpt_three_phase.o
 .ARM.attributes
                0x000006f0       0x3a ./ra/fsp/src/r_gpt/r_gpt.o
 .ARM.attributes
                0x0000072a       0x3a ./ra/fsp/src/r_agt/r_agt.o
 .ARM.attributes
                0x00000764       0x3a ./ra/fsp/src/r_adc_b/r_adc_b.o
 .ARM.attributes
                0x0000079e       0x3a ./ra/fsp/src/bsp/mcu/all/bsp_clocks.o
 .ARM.attributes
                0x000007d8       0x3a ./ra/fsp/src/bsp/mcu/all/bsp_common.o
 .ARM.attributes
                0x00000812       0x3a ./ra/fsp/src/bsp/mcu/all/bsp_delay.o
 .ARM.attributes
                0x0000084c       0x3a ./ra/fsp/src/bsp/mcu/all/bsp_group_irq.o
 .ARM.attributes
                0x00000886       0x3a ./ra/fsp/src/bsp/mcu/all/bsp_io.o
 .ARM.attributes
                0x000008c0       0x3a ./ra/fsp/src/bsp/mcu/all/bsp_irq.o
 .ARM.attributes
                0x000008fa       0x3a ./ra/fsp/src/bsp/mcu/all/bsp_register_protection.o
 .ARM.attributes
                0x00000934       0x3a ./ra/fsp/src/bsp/mcu/all/bsp_rom_registers.o
 .ARM.attributes
                0x0000096e       0x3a ./ra/fsp/src/bsp/cmsis/Device/RENESAS/Source/startup.o
 .ARM.attributes
                0x000009a8       0x3a ./ra/fsp/src/bsp/cmsis/Device/RENESAS/Source/system.o
 .ARM.attributes
                0x000009e2       0x3a C:/Users/a5143778/Documents/MC_Greece/MC_Greece/RA6T2_MCIHV1_IPM_LESS_FOC_WHOLE_PFC_E2S_V100/src/application/user_interface/ics/ICS2_RA6T2.o(ICS2_RA6T2.o)
 .ARM.attributes
                0x00000a1c       0x3a C:\Users\a5143778\Documents\MC_Greece\MC_Greece\RA6T2_MCIHV1_IPM_LESS_FOC_WHOLE_PFC_E2S_V100\src\application\motor_module\current\libr_motor_current_bemf_observer.a(r_motor_current_bemf_observer.o)
 .ARM.attributes
                0x00000a56       0x3a C:\Users\a5143778\Documents\MC_Greece\MC_Greece\RA6T2_MCIHV1_IPM_LESS_FOC_WHOLE_PFC_E2S_V100\src\application\motor_module\current\libr_motor_current_lowspd_sensorless.a(r_motor_current_lowspd_sensorless.o)
 .ARM.attributes
                0x00000a90       0x3a C:\Users\a5143778\Documents\MC_Greece\MC_Greece\RA6T2_MCIHV1_IPM_LESS_FOC_WHOLE_PFC_E2S_V100\src\application\motor_module\current\libr_motor_current_stall_detection.a(r_motor_current_stall_detection.o)
 .ARM.attributes
                0x00000aca       0x3a C:\Users\a5143778\Documents\MC_Greece\MC_Greece\RA6T2_MCIHV1_IPM_LESS_FOC_WHOLE_PFC_E2S_V100\src\application\motor_module\current\libr_motor_current_trq_vib_comp.a(r_motor_current_trq_vib_comp.o)
 .ARM.attributes
                0x00000b04       0x3a C:\Users\a5143778\Documents\MC_Greece\MC_Greece\RA6T2_MCIHV1_IPM_LESS_FOC_WHOLE_PFC_E2S_V100\src\application\motor_module\current\libr_motor_current_volt_err_comp.a(r_motor_current_volt_err_comp.o)
 .ARM.attributes
                0x00000b3e       0x3a C:\Users\a5143778\Documents\MC_Greece\MC_Greece\RA6T2_MCIHV1_IPM_LESS_FOC_WHOLE_PFC_E2S_V100\src\application\motor_module\sensorless_vector\libr_motor_sensorless_vector_flyingstart.a(r_motor_sensorless_vector_flyingstart.o)
 .ARM.attributes
                0x00000b78       0x3a C:\Users\a5143778\Documents\MC_Greece\MC_Greece\RA6T2_MCIHV1_IPM_LESS_FOC_WHOLE_PFC_E2S_V100\src\application\motor_module\speed\libr_motor_speed_extobserver.a(r_motor_speed_extobserver.o)
 .ARM.attributes
                0x00000bb2       0x3a C:\Users\a5143778\Documents\MC_Greece\MC_Greece\RA6T2_MCIHV1_IPM_LESS_FOC_WHOLE_PFC_E2S_V100\src\application\motor_module\speed\libr_motor_speed_fluxwkn.a(r_motor_speed_fluxwkn.o)
 .ARM.attributes
                0x00000bec       0x26 C:/Program Files (x86)/Arm GNU Toolchain arm-none-eabi/13.3 rel1/bin/../lib/gcc/arm-none-eabi/13.3.1/thumb/v8-m.main+fp/hard\libgcc.a(_arm_addsubdf3.o)
 .ARM.attributes
                0x00000c12       0x26 C:/Program Files (x86)/Arm GNU Toolchain arm-none-eabi/13.3 rel1/bin/../lib/gcc/arm-none-eabi/13.3.1/thumb/v8-m.main+fp/hard\libgcc.a(_arm_truncdfsf2.o)
 .ARM.attributes
                0x00000c38       0x38 C:/Program Files (x86)/Arm GNU Toolchain arm-none-eabi/13.3 rel1/bin/../lib/gcc/arm-none-eabi/13.3.1/thumb/v8-m.main+fp/hard\libg_nano.a(libc_a-findfp.o)
 .ARM.attributes
                0x00000c70       0x38 C:/Program Files (x86)/Arm GNU Toolchain arm-none-eabi/13.3 rel1/bin/../lib/gcc/arm-none-eabi/13.3.1/thumb/v8-m.main+fp/hard\libg_nano.a(libc_a-memset.o)
 .ARM.attributes
                0x00000ca8       0x38 C:/Program Files (x86)/Arm GNU Toolchain arm-none-eabi/13.3 rel1/bin/../lib/gcc/arm-none-eabi/13.3.1/thumb/v8-m.main+fp/hard\libg_nano.a(libc_a-impure.o)
 .ARM.attributes
                0x00000ce0       0x38 C:/Program Files (x86)/Arm GNU Toolchain arm-none-eabi/13.3 rel1/bin/../lib/gcc/arm-none-eabi/13.3.1/thumb/v8-m.main+fp/hard\libg_nano.a(libc_a-errno.o)
 .ARM.attributes
                0x00000d18       0x38 C:/Program Files (x86)/Arm GNU Toolchain arm-none-eabi/13.3 rel1/bin/../lib/gcc/arm-none-eabi/13.3.1/thumb/v8-m.main+fp/hard\libg_nano.a(libc_a-memcpy-stub.o)
 .ARM.attributes
                0x00000d50       0x24 C:/Program Files (x86)/Arm GNU Toolchain arm-none-eabi/13.3 rel1/bin/../lib/gcc/arm-none-eabi/13.3.1/thumb/v8-m.main+fp/hard\libc_nano.a(libc_a-strlen.o)
 .ARM.attributes
                0x00000d74       0x38 C:/Program Files (x86)/Arm GNU Toolchain arm-none-eabi/13.3 rel1/bin/../lib/gcc/arm-none-eabi/13.3.1/thumb/v8-m.main+fp/hard/crtend.o
 .ARM.attributes
                0x00000dac       0x26 C:/Program Files (x86)/Arm GNU Toolchain arm-none-eabi/13.3 rel1/bin/../lib/gcc/arm-none-eabi/13.3.1/thumb/v8-m.main+fp/hard/crtn.o
 .ARM.attributes
                0x00000dd2       0x38 C:/Program Files (x86)/Arm GNU Toolchain arm-none-eabi/13.3 rel1/bin/../lib/gcc/arm-none-eabi/13.3.1/thumb/v8-m.main+fp/hard\libm.a(libm_a-w_sqrt.o)
 .ARM.attributes
                0x00000e0a       0x38 C:/Program Files (x86)/Arm GNU Toolchain arm-none-eabi/13.3 rel1/bin/../lib/gcc/arm-none-eabi/13.3.1/thumb/v8-m.main+fp/hard\libm.a(libm_a-wf_atan2.o)
 .ARM.attributes
                0x00000e42       0x38 C:/Program Files (x86)/Arm GNU Toolchain arm-none-eabi/13.3 rel1/bin/../lib/gcc/arm-none-eabi/13.3.1/thumb/v8-m.main+fp/hard\libm.a(libm_a-wf_sqrt.o)
 .ARM.attributes
                0x00000e7a       0x38 C:/Program Files (x86)/Arm GNU Toolchain arm-none-eabi/13.3 rel1/bin/../lib/gcc/arm-none-eabi/13.3.1/thumb/v8-m.main+fp/hard\libm.a(libm_a-sf_atan.o)
 .ARM.attributes
                0x00000eb2       0x38 C:/Program Files (x86)/Arm GNU Toolchain arm-none-eabi/13.3 rel1/bin/../lib/gcc/arm-none-eabi/13.3.1/thumb/v8-m.main+fp/hard\libm.a(libm_a-sf_cos.o)
 .ARM.attributes
                0x00000eea       0x38 C:/Program Files (x86)/Arm GNU Toolchain arm-none-eabi/13.3 rel1/bin/../lib/gcc/arm-none-eabi/13.3.1/thumb/v8-m.main+fp/hard\libm.a(libm_a-sf_fabs.o)
 .ARM.attributes
                0x00000f22       0x38 C:/Program Files (x86)/Arm GNU Toolchain arm-none-eabi/13.3 rel1/bin/../lib/gcc/arm-none-eabi/13.3.1/thumb/v8-m.main+fp/hard\libm.a(libm_a-sf_sin.o)
 .ARM.attributes
                0x00000f5a       0x38 C:/Program Files (x86)/Arm GNU Toolchain arm-none-eabi/13.3 rel1/bin/../lib/gcc/arm-none-eabi/13.3.1/thumb/v8-m.main+fp/hard\libm.a(libm_a-e_sqrt.o)
 .ARM.attributes
                0x00000f92       0x38 C:/Program Files (x86)/Arm GNU Toolchain arm-none-eabi/13.3 rel1/bin/../lib/gcc/arm-none-eabi/13.3.1/thumb/v8-m.main+fp/hard\libm.a(libm_a-ef_sqrt.o)
 .ARM.attributes
                0x00000fca       0x38 C:/Program Files (x86)/Arm GNU Toolchain arm-none-eabi/13.3 rel1/bin/../lib/gcc/arm-none-eabi/13.3.1/thumb/v8-m.main+fp/hard\libm.a(libm_a-kf_cos.o)
 .ARM.attributes
                0x00001002       0x38 C:/Program Files (x86)/Arm GNU Toolchain arm-none-eabi/13.3 rel1/bin/../lib/gcc/arm-none-eabi/13.3.1/thumb/v8-m.main+fp/hard\libm.a(libm_a-kf_sin.o)
 .ARM.attributes
                0x0000103a       0x38 C:/Program Files (x86)/Arm GNU Toolchain arm-none-eabi/13.3 rel1/bin/../lib/gcc/arm-none-eabi/13.3.1/thumb/v8-m.main+fp/hard\libm.a(libm_a-ef_atan2.o)
 .ARM.attributes
                0x00001072       0x38 C:/Program Files (x86)/Arm GNU Toolchain arm-none-eabi/13.3 rel1/bin/../lib/gcc/arm-none-eabi/13.3.1/thumb/v8-m.main+fp/hard\libm.a(libm_a-ef_rem_pio2.o)
 .ARM.attributes
                0x000010aa       0x38 C:/Program Files (x86)/Arm GNU Toolchain arm-none-eabi/13.3 rel1/bin/../lib/gcc/arm-none-eabi/13.3.1/thumb/v8-m.main+fp/hard\libm.a(libm_a-kf_rem_pio2.o)
 .ARM.attributes
                0x000010e2       0x38 C:/Program Files (x86)/Arm GNU Toolchain arm-none-eabi/13.3 rel1/bin/../lib/gcc/arm-none-eabi/13.3.1/thumb/v8-m.main+fp/hard\libm.a(libm_a-sf_scalbn.o)
 .ARM.attributes
                0x0000111a       0x38 C:/Program Files (x86)/Arm GNU Toolchain arm-none-eabi/13.3 rel1/bin/../lib/gcc/arm-none-eabi/13.3.1/thumb/v8-m.main+fp/hard\libm.a(libm_a-sf_floor.o)
 .ARM.attributes
                0x00001152       0x26 C:/Program Files (x86)/Arm GNU Toolchain arm-none-eabi/13.3 rel1/bin/../lib/gcc/arm-none-eabi/13.3.1/thumb/v8-m.main+fp/hard\libgcc.a(_arm_muldivdf3.o)
 .ARM.attributes
                0x00001178       0x26 C:/Program Files (x86)/Arm GNU Toolchain arm-none-eabi/13.3 rel1/bin/../lib/gcc/arm-none-eabi/13.3.1/thumb/v8-m.main+fp/hard\libgcc.a(_arm_cmpdf2.o)
 .ARM.attributes
                0x0000119e       0x26 C:/Program Files (x86)/Arm GNU Toolchain arm-none-eabi/13.3 rel1/bin/../lib/gcc/arm-none-eabi/13.3.1/thumb/v8-m.main+fp/hard\libgcc.a(_arm_unorddf2.o)

.comment        0x00000000       0xd2
 .comment       0x00000000       0xd2 ./src/application/user_interface/ics/r_mtr_ics.o
                                 0x46 (size before relaxing)
 .comment       0x000000d2       0x46 ./src/application/system_module/system_manager/r_system_manager_api.o
 .comment       0x000000d2       0x46 ./src/application/motor_module/speed/r_motor_speed.o
 .comment       0x000000d2       0x46 ./src/application/motor_module/speed/r_motor_speed_api.o
 .comment       0x000000d2       0x46 ./src/application/motor_module/speed/r_motor_speed_mtpa.o
 .comment       0x000000d2       0x46 ./src/application/motor_module/speed/r_motor_speed_pi_gain_calc.o
 .comment       0x000000d2       0x46 ./src/application/motor_module/sensorless_vector/r_motor_sensorless_vector_action.o
 .comment       0x000000d2       0x46 ./src/application/motor_module/sensorless_vector/r_motor_sensorless_vector_api.o
 .comment       0x000000d2       0x46 ./src/application/motor_module/sensorless_vector/r_motor_sensorless_vector_manager.o
 .comment       0x000000d2       0x46 ./src/application/motor_module/sensorless_vector/r_motor_sensorless_vector_protection.o
 .comment       0x000000d2       0x46 ./src/application/motor_module/sensorless_vector/r_motor_sensorless_vector_statemachine.o
 .comment       0x000000d2       0x46 ./src/application/motor_module/general/r_motor_filter.o
 .comment       0x000000d2       0x46 ./src/application/motor_module/general/r_motor_pi_control.o
 .comment       0x000000d2       0x46 ./src/application/motor_module/driver/r_motor_driver.o
 .comment       0x000000d2       0x46 ./src/application/motor_module/driver/r_motor_driver_fsp.o
 .comment       0x000000d2       0x46 ./src/application/motor_module/current/r_motor_current.o
 .comment       0x000000d2       0x46 ./src/application/motor_module/current/r_motor_current_api.o
 .comment       0x000000d2       0x46 ./src/application/motor_module/current/r_motor_current_modulation.o
 .comment       0x000000d2       0x46 ./src/application/motor_module/current/r_motor_current_pi_gain_calc.o
 .comment       0x000000d2       0x46 ./src/application/main/mtr_main.o
 .comment       0x000000d2       0x46 ./src/hal_entry.o
 .comment       0x000000d2       0x46 ./ra_gen/common_data.o
 .comment       0x000000d2       0x46 ./ra_gen/hal_data.o
 .comment       0x000000d2       0x46 ./ra_gen/main.o
 .comment       0x000000d2       0x46 ./ra_gen/pin_data.o
 .comment       0x000000d2       0x46 ./ra_gen/vector_data.o
 .comment       0x000000d2       0x46 ./ra/fsp/src/r_poeg/r_poeg.o
 .comment       0x000000d2       0x46 ./ra/fsp/src/r_ioport/r_ioport.o
 .comment       0x000000d2       0x46 ./ra/fsp/src/r_gpt_three_phase/r_gpt_three_phase.o
 .comment       0x000000d2       0x46 ./ra/fsp/src/r_gpt/r_gpt.o
 .comment       0x000000d2       0x46 ./ra/fsp/src/r_agt/r_agt.o
 .comment       0x000000d2       0x46 ./ra/fsp/src/r_adc_b/r_adc_b.o
 .comment       0x000000d2       0x46 ./ra/fsp/src/bsp/mcu/all/bsp_clocks.o
 .comment       0x000000d2       0x46 ./ra/fsp/src/bsp/mcu/all/bsp_common.o
 .comment       0x000000d2       0x46 ./ra/fsp/src/bsp/mcu/all/bsp_delay.o
 .comment       0x000000d2       0x46 ./ra/fsp/src/bsp/mcu/all/bsp_group_irq.o
 .comment       0x000000d2       0x46 ./ra/fsp/src/bsp/mcu/all/bsp_io.o
 .comment       0x000000d2       0x46 ./ra/fsp/src/bsp/mcu/all/bsp_irq.o
 .comment       0x000000d2       0x46 ./ra/fsp/src/bsp/mcu/all/bsp_register_protection.o
 .comment       0x000000d2       0x46 ./ra/fsp/src/bsp/mcu/all/bsp_rom_registers.o
 .comment       0x000000d2       0x46 ./ra/fsp/src/bsp/cmsis/Device/RENESAS/Source/startup.o
 .comment       0x000000d2       0x46 ./ra/fsp/src/bsp/cmsis/Device/RENESAS/Source/system.o
 .comment       0x000000d2       0x4a C:/Users/a5143778/Documents/MC_Greece/MC_Greece/RA6T2_MCIHV1_IPM_LESS_FOC_WHOLE_PFC_E2S_V100/src/application/user_interface/ics/ICS2_RA6T2.o(ICS2_RA6T2.o)
 .comment       0x000000d2       0x45 C:\Users\a5143778\Documents\MC_Greece\MC_Greece\RA6T2_MCIHV1_IPM_LESS_FOC_WHOLE_PFC_E2S_V100\src\application\motor_module\current\libr_motor_current_bemf_observer.a(r_motor_current_bemf_observer.o)
 .comment       0x000000d2       0x45 C:\Users\a5143778\Documents\MC_Greece\MC_Greece\RA6T2_MCIHV1_IPM_LESS_FOC_WHOLE_PFC_E2S_V100\src\application\motor_module\current\libr_motor_current_lowspd_sensorless.a(r_motor_current_lowspd_sensorless.o)
 .comment       0x000000d2       0x45 C:\Users\a5143778\Documents\MC_Greece\MC_Greece\RA6T2_MCIHV1_IPM_LESS_FOC_WHOLE_PFC_E2S_V100\src\application\motor_module\current\libr_motor_current_stall_detection.a(r_motor_current_stall_detection.o)
 .comment       0x000000d2       0x45 C:\Users\a5143778\Documents\MC_Greece\MC_Greece\RA6T2_MCIHV1_IPM_LESS_FOC_WHOLE_PFC_E2S_V100\src\application\motor_module\current\libr_motor_current_trq_vib_comp.a(r_motor_current_trq_vib_comp.o)
 .comment       0x000000d2       0x45 C:\Users\a5143778\Documents\MC_Greece\MC_Greece\RA6T2_MCIHV1_IPM_LESS_FOC_WHOLE_PFC_E2S_V100\src\application\motor_module\current\libr_motor_current_volt_err_comp.a(r_motor_current_volt_err_comp.o)
 .comment       0x000000d2       0x45 C:\Users\a5143778\Documents\MC_Greece\MC_Greece\RA6T2_MCIHV1_IPM_LESS_FOC_WHOLE_PFC_E2S_V100\src\application\motor_module\sensorless_vector\libr_motor_sensorless_vector_flyingstart.a(r_motor_sensorless_vector_flyingstart.o)
 .comment       0x000000d2       0x45 C:\Users\a5143778\Documents\MC_Greece\MC_Greece\RA6T2_MCIHV1_IPM_LESS_FOC_WHOLE_PFC_E2S_V100\src\application\motor_module\speed\libr_motor_speed_extobserver.a(r_motor_speed_extobserver.o)
 .comment       0x000000d2       0x45 C:\Users\a5143778\Documents\MC_Greece\MC_Greece\RA6T2_MCIHV1_IPM_LESS_FOC_WHOLE_PFC_E2S_V100\src\application\motor_module\speed\libr_motor_speed_fluxwkn.a(r_motor_speed_fluxwkn.o)

.debug_info     0x00000000    0x71130
 .debug_info    0x00000000     0x1494 ./src/application/user_interface/ics/r_mtr_ics.o
 .debug_info    0x00001494     0x1d21 ./src/application/system_module/system_manager/r_system_manager_api.o
 .debug_info    0x000031b5      0xa4d ./src/application/motor_module/speed/r_motor_speed.o
 .debug_info    0x00003c02     0x18ee ./src/application/motor_module/speed/r_motor_speed_api.o
 .debug_info    0x000054f0      0x364 ./src/application/motor_module/speed/r_motor_speed_mtpa.o
 .debug_info    0x00005854      0x5df ./src/application/motor_module/speed/r_motor_speed_pi_gain_calc.o
 .debug_info    0x00005e33     0x1722 ./src/application/motor_module/sensorless_vector/r_motor_sensorless_vector_action.o
 .debug_info    0x00007555     0x21b3 ./src/application/motor_module/sensorless_vector/r_motor_sensorless_vector_api.o
 .debug_info    0x00009708     0x1df8 ./src/application/motor_module/sensorless_vector/r_motor_sensorless_vector_manager.o
 .debug_info    0x0000b500     0x1813 ./src/application/motor_module/sensorless_vector/r_motor_sensorless_vector_protection.o
 .debug_info    0x0000cd13      0x337 ./src/application/motor_module/sensorless_vector/r_motor_sensorless_vector_statemachine.o
 .debug_info    0x0000d04a      0x735 ./src/application/motor_module/general/r_motor_filter.o
 .debug_info    0x0000d77f      0x2cd ./src/application/motor_module/general/r_motor_pi_control.o
 .debug_info    0x0000da4c      0x861 ./src/application/motor_module/driver/r_motor_driver.o
 .debug_info    0x0000e2ad     0x5437 ./src/application/motor_module/driver/r_motor_driver_fsp.o
 .debug_info    0x000136e4     0x130e ./src/application/motor_module/current/r_motor_current.o
 .debug_info    0x000149f2     0x1d79 ./src/application/motor_module/current/r_motor_current_api.o
 .debug_info    0x0001676b      0x57e ./src/application/motor_module/current/r_motor_current_modulation.o
 .debug_info    0x00016ce9      0xb09 ./src/application/motor_module/current/r_motor_current_pi_gain_calc.o
 .debug_info    0x000177f2     0x734c ./src/application/main/mtr_main.o
 .debug_info    0x0001eb3e     0x12b5 ./src/hal_entry.o
 .debug_info    0x0001fdf3     0x1a1a ./ra_gen/common_data.o
 .debug_info    0x0002180d     0x7cf8 ./ra_gen/hal_data.o
 .debug_info    0x00029505       0xb0 ./ra_gen/main.o
 .debug_info    0x000295b5     0x1211 ./ra_gen/pin_data.o
 .debug_info    0x0002a7c6      0x913 ./ra_gen/vector_data.o
 .debug_info    0x0002b0d9     0x373c ./ra/fsp/src/r_poeg/r_poeg.o
 .debug_info    0x0002e815     0x3614 ./ra/fsp/src/r_ioport/r_ioport.o
 .debug_info    0x00031e29     0x49fb ./ra/fsp/src/r_gpt_three_phase/r_gpt_three_phase.o
 .debug_info    0x00036824     0xc689 ./ra/fsp/src/r_gpt/r_gpt.o
 .debug_info    0x00042ead     0x877d ./ra/fsp/src/r_agt/r_agt.o
 .debug_info    0x0004b62a     0xed62 ./ra/fsp/src/r_adc_b/r_adc_b.o
 .debug_info    0x0005a38c     0x51ba ./ra/fsp/src/bsp/mcu/all/bsp_clocks.o
 .debug_info    0x0005f546     0x1132 ./ra/fsp/src/bsp/mcu/all/bsp_common.o
 .debug_info    0x00060678      0x1e9 ./ra/fsp/src/bsp/mcu/all/bsp_delay.o
 .debug_info    0x00060861     0x1ca1 ./ra/fsp/src/bsp/mcu/all/bsp_group_irq.o
 .debug_info    0x00062502      0x88e ./ra/fsp/src/bsp/mcu/all/bsp_io.o
 .debug_info    0x00062d90     0x228a ./ra/fsp/src/bsp/mcu/all/bsp_irq.o
 .debug_info    0x0006501a     0x486b ./ra/fsp/src/bsp/mcu/all/bsp_register_protection.o
 .debug_info    0x00069885      0x9a5 ./ra/fsp/src/bsp/mcu/all/bsp_rom_registers.o
 .debug_info    0x0006a22a      0x944 ./ra/fsp/src/bsp/cmsis/Device/RENESAS/Source/startup.o
 .debug_info    0x0006ab6e     0x26a2 ./ra/fsp/src/bsp/cmsis/Device/RENESAS/Source/system.o
 .debug_info    0x0006d210      0x882 C:/Users/a5143778/Documents/MC_Greece/MC_Greece/RA6T2_MCIHV1_IPM_LESS_FOC_WHOLE_PFC_E2S_V100/src/application/user_interface/ics/ICS2_RA6T2.o(ICS2_RA6T2.o)
 .debug_info    0x0006da92      0x9a6 C:\Users\a5143778\Documents\MC_Greece\MC_Greece\RA6T2_MCIHV1_IPM_LESS_FOC_WHOLE_PFC_E2S_V100\src\application\motor_module\current\libr_motor_current_bemf_observer.a(r_motor_current_bemf_observer.o)
 .debug_info    0x0006e438      0x602 C:\Users\a5143778\Documents\MC_Greece\MC_Greece\RA6T2_MCIHV1_IPM_LESS_FOC_WHOLE_PFC_E2S_V100\src\application\motor_module\current\libr_motor_current_lowspd_sensorless.a(r_motor_current_lowspd_sensorless.o)
 .debug_info    0x0006ea3a      0x331 C:\Users\a5143778\Documents\MC_Greece\MC_Greece\RA6T2_MCIHV1_IPM_LESS_FOC_WHOLE_PFC_E2S_V100\src\application\motor_module\current\libr_motor_current_stall_detection.a(r_motor_current_stall_detection.o)
 .debug_info    0x0006ed6b      0x872 C:\Users\a5143778\Documents\MC_Greece\MC_Greece\RA6T2_MCIHV1_IPM_LESS_FOC_WHOLE_PFC_E2S_V100\src\application\motor_module\current\libr_motor_current_trq_vib_comp.a(r_motor_current_trq_vib_comp.o)
 .debug_info    0x0006f5dd      0x4b8 C:\Users\a5143778\Documents\MC_Greece\MC_Greece\RA6T2_MCIHV1_IPM_LESS_FOC_WHOLE_PFC_E2S_V100\src\application\motor_module\current\libr_motor_current_volt_err_comp.a(r_motor_current_volt_err_comp.o)
 .debug_info    0x0006fa95      0x5ed C:\Users\a5143778\Documents\MC_Greece\MC_Greece\RA6T2_MCIHV1_IPM_LESS_FOC_WHOLE_PFC_E2S_V100\src\application\motor_module\sensorless_vector\libr_motor_sensorless_vector_flyingstart.a(r_motor_sensorless_vector_flyingstart.o)
 .debug_info    0x00070082      0x71d C:\Users\a5143778\Documents\MC_Greece\MC_Greece\RA6T2_MCIHV1_IPM_LESS_FOC_WHOLE_PFC_E2S_V100\src\application\motor_module\speed\libr_motor_speed_extobserver.a(r_motor_speed_extobserver.o)
 .debug_info    0x0007079f      0x991 C:\Users\a5143778\Documents\MC_Greece\MC_Greece\RA6T2_MCIHV1_IPM_LESS_FOC_WHOLE_PFC_E2S_V100\src\application\motor_module\speed\libr_motor_speed_fluxwkn.a(r_motor_speed_fluxwkn.o)

.debug_abbrev   0x00000000     0x743a
 .debug_abbrev  0x00000000      0x236 ./src/application/user_interface/ics/r_mtr_ics.o
 .debug_abbrev  0x00000236      0x205 ./src/application/system_module/system_manager/r_system_manager_api.o
 .debug_abbrev  0x0000043b      0x239 ./src/application/motor_module/speed/r_motor_speed.o
 .debug_abbrev  0x00000674      0x260 ./src/application/motor_module/speed/r_motor_speed_api.o
 .debug_abbrev  0x000008d4      0x13d ./src/application/motor_module/speed/r_motor_speed_mtpa.o
 .debug_abbrev  0x00000a11       0xbe ./src/application/motor_module/speed/r_motor_speed_pi_gain_calc.o
 .debug_abbrev  0x00000acf      0x181 ./src/application/motor_module/sensorless_vector/r_motor_sensorless_vector_action.o
 .debug_abbrev  0x00000c50      0x290 ./src/application/motor_module/sensorless_vector/r_motor_sensorless_vector_api.o
 .debug_abbrev  0x00000ee0      0x276 ./src/application/motor_module/sensorless_vector/r_motor_sensorless_vector_manager.o
 .debug_abbrev  0x00001156      0x1bb ./src/application/motor_module/sensorless_vector/r_motor_sensorless_vector_protection.o
 .debug_abbrev  0x00001311      0x17a ./src/application/motor_module/sensorless_vector/r_motor_sensorless_vector_statemachine.o
 .debug_abbrev  0x0000148b      0x193 ./src/application/motor_module/general/r_motor_filter.o
 .debug_abbrev  0x0000161e      0x118 ./src/application/motor_module/general/r_motor_pi_control.o
 .debug_abbrev  0x00001736      0x220 ./src/application/motor_module/driver/r_motor_driver.o
 .debug_abbrev  0x00001956      0x304 ./src/application/motor_module/driver/r_motor_driver_fsp.o
 .debug_abbrev  0x00001c5a      0x2fe ./src/application/motor_module/current/r_motor_current.o
 .debug_abbrev  0x00001f58      0x25e ./src/application/motor_module/current/r_motor_current_api.o
 .debug_abbrev  0x000021b6      0x21b ./src/application/motor_module/current/r_motor_current_modulation.o
 .debug_abbrev  0x000023d1       0xe9 ./src/application/motor_module/current/r_motor_current_pi_gain_calc.o
 .debug_abbrev  0x000024ba      0x452 ./src/application/main/mtr_main.o
 .debug_abbrev  0x0000290c      0x194 ./src/hal_entry.o
 .debug_abbrev  0x00002aa0      0x12e ./ra_gen/common_data.o
 .debug_abbrev  0x00002bce      0x33b ./ra_gen/hal_data.o
 .debug_abbrev  0x00002f09       0x64 ./ra_gen/main.o
 .debug_abbrev  0x00002f6d       0xf6 ./ra_gen/pin_data.o
 .debug_abbrev  0x00003063       0xba ./ra_gen/vector_data.o
 .debug_abbrev  0x0000311d      0x480 ./ra/fsp/src/r_poeg/r_poeg.o
 .debug_abbrev  0x0000359d      0x3ef ./ra/fsp/src/r_ioport/r_ioport.o
 .debug_abbrev  0x0000398c      0x30e ./ra/fsp/src/r_gpt_three_phase/r_gpt_three_phase.o
 .debug_abbrev  0x00003c9a      0x662 ./ra/fsp/src/r_gpt/r_gpt.o
 .debug_abbrev  0x000042fc      0x597 ./ra/fsp/src/r_agt/r_agt.o
 .debug_abbrev  0x00004893      0x648 ./ra/fsp/src/r_adc_b/r_adc_b.o
 .debug_abbrev  0x00004edb      0x35d ./ra/fsp/src/bsp/mcu/all/bsp_clocks.o
 .debug_abbrev  0x00005238      0x183 ./ra/fsp/src/bsp/mcu/all/bsp_common.o
 .debug_abbrev  0x000053bb      0x11a ./ra/fsp/src/bsp/mcu/all/bsp_delay.o
 .debug_abbrev  0x000054d5      0x254 ./ra/fsp/src/bsp/mcu/all/bsp_group_irq.o
 .debug_abbrev  0x00005729       0x85 ./ra/fsp/src/bsp/mcu/all/bsp_io.o
 .debug_abbrev  0x000057ae      0x28c ./ra/fsp/src/bsp/mcu/all/bsp_irq.o
 .debug_abbrev  0x00005a3a      0x280 ./ra/fsp/src/bsp/mcu/all/bsp_register_protection.o
 .debug_abbrev  0x00005cba       0x74 ./ra/fsp/src/bsp/mcu/all/bsp_rom_registers.o
 .debug_abbrev  0x00005d2e      0x120 ./ra/fsp/src/bsp/cmsis/Device/RENESAS/Source/startup.o
 .debug_abbrev  0x00005e4e      0x34e ./ra/fsp/src/bsp/cmsis/Device/RENESAS/Source/system.o
 .debug_abbrev  0x0000619c      0x26d C:/Users/a5143778/Documents/MC_Greece/MC_Greece/RA6T2_MCIHV1_IPM_LESS_FOC_WHOLE_PFC_E2S_V100/src/application/user_interface/ics/ICS2_RA6T2.o(ICS2_RA6T2.o)
 .debug_abbrev  0x00006409      0x254 C:\Users\a5143778\Documents\MC_Greece\MC_Greece\RA6T2_MCIHV1_IPM_LESS_FOC_WHOLE_PFC_E2S_V100\src\application\motor_module\current\libr_motor_current_bemf_observer.a(r_motor_current_bemf_observer.o)
 .debug_abbrev  0x0000665d      0x1b1 C:\Users\a5143778\Documents\MC_Greece\MC_Greece\RA6T2_MCIHV1_IPM_LESS_FOC_WHOLE_PFC_E2S_V100\src\application\motor_module\current\libr_motor_current_lowspd_sensorless.a(r_motor_current_lowspd_sensorless.o)
 .debug_abbrev  0x0000680e      0x142 C:\Users\a5143778\Documents\MC_Greece\MC_Greece\RA6T2_MCIHV1_IPM_LESS_FOC_WHOLE_PFC_E2S_V100\src\application\motor_module\current\libr_motor_current_stall_detection.a(r_motor_current_stall_detection.o)
 .debug_abbrev  0x00006950      0x269 C:\Users\a5143778\Documents\MC_Greece\MC_Greece\RA6T2_MCIHV1_IPM_LESS_FOC_WHOLE_PFC_E2S_V100\src\application\motor_module\current\libr_motor_current_trq_vib_comp.a(r_motor_current_trq_vib_comp.o)
 .debug_abbrev  0x00006bb9      0x1ea C:\Users\a5143778\Documents\MC_Greece\MC_Greece\RA6T2_MCIHV1_IPM_LESS_FOC_WHOLE_PFC_E2S_V100\src\application\motor_module\current\libr_motor_current_volt_err_comp.a(r_motor_current_volt_err_comp.o)
 .debug_abbrev  0x00006da3      0x1dc C:\Users\a5143778\Documents\MC_Greece\MC_Greece\RA6T2_MCIHV1_IPM_LESS_FOC_WHOLE_PFC_E2S_V100\src\application\motor_module\sensorless_vector\libr_motor_sensorless_vector_flyingstart.a(r_motor_sensorless_vector_flyingstart.o)
 .debug_abbrev  0x00006f7f      0x249 C:\Users\a5143778\Documents\MC_Greece\MC_Greece\RA6T2_MCIHV1_IPM_LESS_FOC_WHOLE_PFC_E2S_V100\src\application\motor_module\speed\libr_motor_speed_extobserver.a(r_motor_speed_extobserver.o)
 .debug_abbrev  0x000071c8      0x272 C:\Users\a5143778\Documents\MC_Greece\MC_Greece\RA6T2_MCIHV1_IPM_LESS_FOC_WHOLE_PFC_E2S_V100\src\application\motor_module\speed\libr_motor_speed_fluxwkn.a(r_motor_speed_fluxwkn.o)

.debug_loc      0x00000000     0xe7ed
 .debug_loc     0x00000000       0x5c ./src/application/user_interface/ics/r_mtr_ics.o
 .debug_loc     0x0000005c       0x2f ./src/application/system_module/system_manager/r_system_manager_api.o
 .debug_loc     0x0000008b      0x37a ./src/application/motor_module/speed/r_motor_speed.o
 .debug_loc     0x00000405      0x2d1 ./src/application/motor_module/speed/r_motor_speed_api.o
 .debug_loc     0x000006d6      0x249 ./src/application/motor_module/speed/r_motor_speed_mtpa.o
 .debug_loc     0x0000091f      0x177 ./src/application/motor_module/speed/r_motor_speed_pi_gain_calc.o
 .debug_loc     0x00000a96      0x20b ./src/application/motor_module/sensorless_vector/r_motor_sensorless_vector_action.o
 .debug_loc     0x00000ca1      0x366 ./src/application/motor_module/sensorless_vector/r_motor_sensorless_vector_api.o
 .debug_loc     0x00001007      0x2b4 ./src/application/motor_module/sensorless_vector/r_motor_sensorless_vector_manager.o
 .debug_loc     0x000012bb      0x436 ./src/application/motor_module/sensorless_vector/r_motor_sensorless_vector_protection.o
 .debug_loc     0x000016f1      0x15b ./src/application/motor_module/sensorless_vector/r_motor_sensorless_vector_statemachine.o
 .debug_loc     0x0000184c      0x6ac ./src/application/motor_module/general/r_motor_filter.o
 .debug_loc     0x00001ef8      0x127 ./src/application/motor_module/general/r_motor_pi_control.o
 .debug_loc     0x0000201f      0x917 ./src/application/motor_module/driver/r_motor_driver.o
 .debug_loc     0x00002936      0x1d3 ./src/application/motor_module/driver/r_motor_driver_fsp.o
 .debug_loc     0x00002b09      0x686 ./src/application/motor_module/current/r_motor_current.o
 .debug_loc     0x0000318f      0x41a ./src/application/motor_module/current/r_motor_current_api.o
 .debug_loc     0x000035a9      0x2e7 ./src/application/motor_module/current/r_motor_current_modulation.o
 .debug_loc     0x00003890      0x11c ./src/application/motor_module/current/r_motor_current_pi_gain_calc.o
 .debug_loc     0x000039ac      0x281 ./src/application/main/mtr_main.o
 .debug_loc     0x00003c2d       0x2b ./src/hal_entry.o
 .debug_loc     0x00003c58      0x53f ./ra/fsp/src/r_poeg/r_poeg.o
 .debug_loc     0x00004197      0xab1 ./ra/fsp/src/r_ioport/r_ioport.o
 .debug_loc     0x00004c48      0x369 ./ra/fsp/src/r_gpt_three_phase/r_gpt_three_phase.o
 .debug_loc     0x00004fb1     0x1fdf ./ra/fsp/src/r_gpt/r_gpt.o
 .debug_loc     0x00006f90     0x1700 ./ra/fsp/src/r_agt/r_agt.o
 .debug_loc     0x00008690     0x20b3 ./ra/fsp/src/r_adc_b/r_adc_b.o
 .debug_loc     0x0000a743      0x376 ./ra/fsp/src/bsp/mcu/all/bsp_clocks.o
 .debug_loc     0x0000aab9       0x22 ./ra/fsp/src/bsp/mcu/all/bsp_common.o
 .debug_loc     0x0000aadb      0x1a4 ./ra/fsp/src/bsp/mcu/all/bsp_delay.o
 .debug_loc     0x0000ac7f       0xb1 ./ra/fsp/src/bsp/mcu/all/bsp_group_irq.o
 .debug_loc     0x0000ad30      0x105 ./ra/fsp/src/bsp/mcu/all/bsp_irq.o
 .debug_loc     0x0000ae35      0x10b ./ra/fsp/src/bsp/mcu/all/bsp_register_protection.o
 .debug_loc     0x0000af40      0x130 ./ra/fsp/src/bsp/cmsis/Device/RENESAS/Source/system.o
 .debug_loc     0x0000b070      0x3ee C:/Users/a5143778/Documents/MC_Greece/MC_Greece/RA6T2_MCIHV1_IPM_LESS_FOC_WHOLE_PFC_E2S_V100/src/application/user_interface/ics/ICS2_RA6T2.o(ICS2_RA6T2.o)
 .debug_loc     0x0000b45e      0xab7 C:\Users\a5143778\Documents\MC_Greece\MC_Greece\RA6T2_MCIHV1_IPM_LESS_FOC_WHOLE_PFC_E2S_V100\src\application\motor_module\current\libr_motor_current_bemf_observer.a(r_motor_current_bemf_observer.o)
 .debug_loc     0x0000bf15      0x543 C:\Users\a5143778\Documents\MC_Greece\MC_Greece\RA6T2_MCIHV1_IPM_LESS_FOC_WHOLE_PFC_E2S_V100\src\application\motor_module\current\libr_motor_current_lowspd_sensorless.a(r_motor_current_lowspd_sensorless.o)
 .debug_loc     0x0000c458       0xb3 C:\Users\a5143778\Documents\MC_Greece\MC_Greece\RA6T2_MCIHV1_IPM_LESS_FOC_WHOLE_PFC_E2S_V100\src\application\motor_module\current\libr_motor_current_stall_detection.a(r_motor_current_stall_detection.o)
 .debug_loc     0x0000c50b      0x7ce C:\Users\a5143778\Documents\MC_Greece\MC_Greece\RA6T2_MCIHV1_IPM_LESS_FOC_WHOLE_PFC_E2S_V100\src\application\motor_module\current\libr_motor_current_trq_vib_comp.a(r_motor_current_trq_vib_comp.o)
 .debug_loc     0x0000ccd9      0xac9 C:\Users\a5143778\Documents\MC_Greece\MC_Greece\RA6T2_MCIHV1_IPM_LESS_FOC_WHOLE_PFC_E2S_V100\src\application\motor_module\current\libr_motor_current_volt_err_comp.a(r_motor_current_volt_err_comp.o)
 .debug_loc     0x0000d7a2      0x338 C:\Users\a5143778\Documents\MC_Greece\MC_Greece\RA6T2_MCIHV1_IPM_LESS_FOC_WHOLE_PFC_E2S_V100\src\application\motor_module\sensorless_vector\libr_motor_sensorless_vector_flyingstart.a(r_motor_sensorless_vector_flyingstart.o)
 .debug_loc     0x0000dada      0x461 C:\Users\a5143778\Documents\MC_Greece\MC_Greece\RA6T2_MCIHV1_IPM_LESS_FOC_WHOLE_PFC_E2S_V100\src\application\motor_module\speed\libr_motor_speed_extobserver.a(r_motor_speed_extobserver.o)
 .debug_loc     0x0000df3b      0x8b2 C:\Users\a5143778\Documents\MC_Greece\MC_Greece\RA6T2_MCIHV1_IPM_LESS_FOC_WHOLE_PFC_E2S_V100\src\application\motor_module\speed\libr_motor_speed_fluxwkn.a(r_motor_speed_fluxwkn.o)

.debug_aranges  0x00000000     0x1030
 .debug_aranges
                0x00000000       0x38 ./src/application/user_interface/ics/r_mtr_ics.o
 .debug_aranges
                0x00000038       0x60 ./src/application/system_module/system_manager/r_system_manager_api.o
 .debug_aranges
                0x00000098       0x58 ./src/application/motor_module/speed/r_motor_speed.o
 .debug_aranges
                0x000000f0       0x78 ./src/application/motor_module/speed/r_motor_speed_api.o
 .debug_aranges
                0x00000168       0x38 ./src/application/motor_module/speed/r_motor_speed_mtpa.o
 .debug_aranges
                0x000001a0       0x20 ./src/application/motor_module/speed/r_motor_speed_pi_gain_calc.o
 .debug_aranges
                0x000001c0       0x40 ./src/application/motor_module/sensorless_vector/r_motor_sensorless_vector_action.o
 .debug_aranges
                0x00000200       0xa0 ./src/application/motor_module/sensorless_vector/r_motor_sensorless_vector_api.o
 .debug_aranges
                0x000002a0       0x60 ./src/application/motor_module/sensorless_vector/r_motor_sensorless_vector_manager.o
 .debug_aranges
                0x00000300       0x20 ./src/application/motor_module/sensorless_vector/r_motor_sensorless_vector_protection.o
 .debug_aranges
                0x00000320       0x38 ./src/application/motor_module/sensorless_vector/r_motor_sensorless_vector_statemachine.o
 .debug_aranges
                0x00000358       0xa0 ./src/application/motor_module/general/r_motor_filter.o
 .debug_aranges
                0x000003f8       0x48 ./src/application/motor_module/general/r_motor_pi_control.o
 .debug_aranges
                0x00000440       0x68 ./src/application/motor_module/driver/r_motor_driver.o
 .debug_aranges
                0x000004a8       0x78 ./src/application/motor_module/driver/r_motor_driver_fsp.o
 .debug_aranges
                0x00000520       0x80 ./src/application/motor_module/current/r_motor_current.o
 .debug_aranges
                0x000005a0       0x98 ./src/application/motor_module/current/r_motor_current_api.o
 .debug_aranges
                0x00000638       0x60 ./src/application/motor_module/current/r_motor_current_modulation.o
 .debug_aranges
                0x00000698       0x20 ./src/application/motor_module/current/r_motor_current_pi_gain_calc.o
 .debug_aranges
                0x000006b8       0x50 ./src/application/main/mtr_main.o
 .debug_aranges
                0x00000708       0x28 ./src/hal_entry.o
 .debug_aranges
                0x00000730       0x20 ./ra_gen/common_data.o
 .debug_aranges
                0x00000750       0x20 ./ra_gen/hal_data.o
 .debug_aranges
                0x00000770       0x20 ./ra_gen/main.o
 .debug_aranges
                0x00000790       0x18 ./ra_gen/pin_data.o
 .debug_aranges
                0x000007a8       0x18 ./ra_gen/vector_data.o
 .debug_aranges
                0x000007c0       0x50 ./ra/fsp/src/r_poeg/r_poeg.o
 .debug_aranges
                0x00000810       0x88 ./ra/fsp/src/r_ioport/r_ioport.o
 .debug_aranges
                0x00000898       0x50 ./ra/fsp/src/r_gpt_three_phase/r_gpt_three_phase.o
 .debug_aranges
                0x000008e8       0xf0 ./ra/fsp/src/r_gpt/r_gpt.o
 .debug_aranges
                0x000009d8       0x88 ./ra/fsp/src/r_agt/r_agt.o
 .debug_aranges
                0x00000a60      0x130 ./ra/fsp/src/r_adc_b/r_adc_b.o
 .debug_aranges
                0x00000b90       0x58 ./ra/fsp/src/bsp/mcu/all/bsp_clocks.o
 .debug_aranges
                0x00000be8       0x30 ./ra/fsp/src/bsp/mcu/all/bsp_common.o
 .debug_aranges
                0x00000c18       0x28 ./ra/fsp/src/bsp/mcu/all/bsp_delay.o
 .debug_aranges
                0x00000c40       0x28 ./ra/fsp/src/bsp/mcu/all/bsp_group_irq.o
 .debug_aranges
                0x00000c68       0x18 ./ra/fsp/src/bsp/mcu/all/bsp_io.o
 .debug_aranges
                0x00000c80       0x20 ./ra/fsp/src/bsp/mcu/all/bsp_irq.o
 .debug_aranges
                0x00000ca0       0x28 ./ra/fsp/src/bsp/mcu/all/bsp_register_protection.o
 .debug_aranges
                0x00000cc8       0x18 ./ra/fsp/src/bsp/mcu/all/bsp_rom_registers.o
 .debug_aranges
                0x00000ce0       0x28 ./ra/fsp/src/bsp/cmsis/Device/RENESAS/Source/startup.o
 .debug_aranges
                0x00000d08       0x28 ./ra/fsp/src/bsp/cmsis/Device/RENESAS/Source/system.o
 .debug_aranges
                0x00000d30       0x40 C:/Users/a5143778/Documents/MC_Greece/MC_Greece/RA6T2_MCIHV1_IPM_LESS_FOC_WHOLE_PFC_E2S_V100/src/application/user_interface/ics/ICS2_RA6T2.o(ICS2_RA6T2.o)
 .debug_aranges
                0x00000d70       0x80 C:\Users\a5143778\Documents\MC_Greece\MC_Greece\RA6T2_MCIHV1_IPM_LESS_FOC_WHOLE_PFC_E2S_V100\src\application\motor_module\current\libr_motor_current_bemf_observer.a(r_motor_current_bemf_observer.o)
 .debug_aranges
                0x00000df0       0x48 C:\Users\a5143778\Documents\MC_Greece\MC_Greece\RA6T2_MCIHV1_IPM_LESS_FOC_WHOLE_PFC_E2S_V100\src\application\motor_module\current\libr_motor_current_lowspd_sensorless.a(r_motor_current_lowspd_sensorless.o)
 .debug_aranges
                0x00000e38       0x38 C:\Users\a5143778\Documents\MC_Greece\MC_Greece\RA6T2_MCIHV1_IPM_LESS_FOC_WHOLE_PFC_E2S_V100\src\application\motor_module\current\libr_motor_current_stall_detection.a(r_motor_current_stall_detection.o)
 .debug_aranges
                0x00000e70       0x50 C:\Users\a5143778\Documents\MC_Greece\MC_Greece\RA6T2_MCIHV1_IPM_LESS_FOC_WHOLE_PFC_E2S_V100\src\application\motor_module\current\libr_motor_current_trq_vib_comp.a(r_motor_current_trq_vib_comp.o)
 .debug_aranges
                0x00000ec0       0x48 C:\Users\a5143778\Documents\MC_Greece\MC_Greece\RA6T2_MCIHV1_IPM_LESS_FOC_WHOLE_PFC_E2S_V100\src\application\motor_module\current\libr_motor_current_volt_err_comp.a(r_motor_current_volt_err_comp.o)
 .debug_aranges
                0x00000f08       0x38 C:\Users\a5143778\Documents\MC_Greece\MC_Greece\RA6T2_MCIHV1_IPM_LESS_FOC_WHOLE_PFC_E2S_V100\src\application\motor_module\sensorless_vector\libr_motor_sensorless_vector_flyingstart.a(r_motor_sensorless_vector_flyingstart.o)
 .debug_aranges
                0x00000f40       0x68 C:\Users\a5143778\Documents\MC_Greece\MC_Greece\RA6T2_MCIHV1_IPM_LESS_FOC_WHOLE_PFC_E2S_V100\src\application\motor_module\speed\libr_motor_speed_extobserver.a(r_motor_speed_extobserver.o)
 .debug_aranges
                0x00000fa8       0x88 C:\Users\a5143778\Documents\MC_Greece\MC_Greece\RA6T2_MCIHV1_IPM_LESS_FOC_WHOLE_PFC_E2S_V100\src\application\motor_module\speed\libr_motor_speed_fluxwkn.a(r_motor_speed_fluxwkn.o)

.debug_ranges   0x00000000     0x2f38
 .debug_ranges  0x00000000       0x90 ./src/application/user_interface/ics/r_mtr_ics.o
 .debug_ranges  0x00000090       0x50 ./src/application/system_module/system_manager/r_system_manager_api.o
 .debug_ranges  0x000000e0       0x90 ./src/application/motor_module/speed/r_motor_speed.o
 .debug_ranges  0x00000170       0xa8 ./src/application/motor_module/speed/r_motor_speed_api.o
 .debug_ranges  0x00000218       0x28 ./src/application/motor_module/speed/r_motor_speed_mtpa.o
 .debug_ranges  0x00000240       0x10 ./src/application/motor_module/speed/r_motor_speed_pi_gain_calc.o
 .debug_ranges  0x00000250       0x30 ./src/application/motor_module/sensorless_vector/r_motor_sensorless_vector_action.o
 .debug_ranges  0x00000280       0x90 ./src/application/motor_module/sensorless_vector/r_motor_sensorless_vector_api.o
 .debug_ranges  0x00000310       0x80 ./src/application/motor_module/sensorless_vector/r_motor_sensorless_vector_manager.o
 .debug_ranges  0x00000390      0x178 ./src/application/motor_module/sensorless_vector/r_motor_sensorless_vector_protection.o
 .debug_ranges  0x00000508       0x28 ./src/application/motor_module/sensorless_vector/r_motor_sensorless_vector_statemachine.o
 .debug_ranges  0x00000530       0x90 ./src/application/motor_module/general/r_motor_filter.o
 .debug_ranges  0x000005c0       0x38 ./src/application/motor_module/general/r_motor_pi_control.o
 .debug_ranges  0x000005f8       0xb0 ./src/application/motor_module/driver/r_motor_driver.o
 .debug_ranges  0x000006a8       0x68 ./src/application/motor_module/driver/r_motor_driver_fsp.o
 .debug_ranges  0x00000710       0xa0 ./src/application/motor_module/current/r_motor_current.o
 .debug_ranges  0x000007b0       0xb0 ./src/application/motor_module/current/r_motor_current_api.o
 .debug_ranges  0x00000860      0x100 ./src/application/motor_module/current/r_motor_current_modulation.o
 .debug_ranges  0x00000960       0x10 ./src/application/motor_module/current/r_motor_current_pi_gain_calc.o
 .debug_ranges  0x00000970      0x1b0 ./src/application/main/mtr_main.o
 .debug_ranges  0x00000b20       0x18 ./src/hal_entry.o
 .debug_ranges  0x00000b38       0x10 ./ra_gen/common_data.o
 .debug_ranges  0x00000b48       0x10 ./ra_gen/hal_data.o
 .debug_ranges  0x00000b58       0x10 ./ra_gen/main.o
 .debug_ranges  0x00000b68      0x148 ./ra/fsp/src/r_poeg/r_poeg.o
 .debug_ranges  0x00000cb0      0x198 ./ra/fsp/src/r_ioport/r_ioport.o
 .debug_ranges  0x00000e48       0x78 ./ra/fsp/src/r_gpt_three_phase/r_gpt_three_phase.o
 .debug_ranges  0x00000ec0      0x4e8 ./ra/fsp/src/r_gpt/r_gpt.o
 .debug_ranges  0x000013a8      0x390 ./ra/fsp/src/r_agt/r_agt.o
 .debug_ranges  0x00001738      0x838 ./ra/fsp/src/r_adc_b/r_adc_b.o
 .debug_ranges  0x00001f70      0x140 ./ra/fsp/src/bsp/mcu/all/bsp_clocks.o
 .debug_ranges  0x000020b0       0x20 ./ra/fsp/src/bsp/mcu/all/bsp_common.o
 .debug_ranges  0x000020d0       0x48 ./ra/fsp/src/bsp/mcu/all/bsp_delay.o
 .debug_ranges  0x00002118       0x58 ./ra/fsp/src/bsp/mcu/all/bsp_group_irq.o
 .debug_ranges  0x00002170       0x70 ./ra/fsp/src/bsp/mcu/all/bsp_irq.o
 .debug_ranges  0x000021e0       0x48 ./ra/fsp/src/bsp/mcu/all/bsp_register_protection.o
 .debug_ranges  0x00002228       0x18 ./ra/fsp/src/bsp/cmsis/Device/RENESAS/Source/startup.o
 .debug_ranges  0x00002240       0x30 ./ra/fsp/src/bsp/cmsis/Device/RENESAS/Source/system.o
 .debug_ranges  0x00002270      0x528 C:/Users/a5143778/Documents/MC_Greece/MC_Greece/RA6T2_MCIHV1_IPM_LESS_FOC_WHOLE_PFC_E2S_V100/src/application/user_interface/ics/ICS2_RA6T2.o(ICS2_RA6T2.o)
 .debug_ranges  0x00002798       0xe8 C:\Users\a5143778\Documents\MC_Greece\MC_Greece\RA6T2_MCIHV1_IPM_LESS_FOC_WHOLE_PFC_E2S_V100\src\application\motor_module\current\libr_motor_current_bemf_observer.a(r_motor_current_bemf_observer.o)
 .debug_ranges  0x00002880       0x70 C:\Users\a5143778\Documents\MC_Greece\MC_Greece\RA6T2_MCIHV1_IPM_LESS_FOC_WHOLE_PFC_E2S_V100\src\application\motor_module\current\libr_motor_current_lowspd_sensorless.a(r_motor_current_lowspd_sensorless.o)
 .debug_ranges  0x000028f0       0x78 C:\Users\a5143778\Documents\MC_Greece\MC_Greece\RA6T2_MCIHV1_IPM_LESS_FOC_WHOLE_PFC_E2S_V100\src\application\motor_module\current\libr_motor_current_stall_detection.a(r_motor_current_stall_detection.o)
 .debug_ranges  0x00002968      0x110 C:\Users\a5143778\Documents\MC_Greece\MC_Greece\RA6T2_MCIHV1_IPM_LESS_FOC_WHOLE_PFC_E2S_V100\src\application\motor_module\current\libr_motor_current_trq_vib_comp.a(r_motor_current_trq_vib_comp.o)
 .debug_ranges  0x00002a78       0x68 C:\Users\a5143778\Documents\MC_Greece\MC_Greece\RA6T2_MCIHV1_IPM_LESS_FOC_WHOLE_PFC_E2S_V100\src\application\motor_module\current\libr_motor_current_volt_err_comp.a(r_motor_current_volt_err_comp.o)
 .debug_ranges  0x00002ae0       0xd8 C:\Users\a5143778\Documents\MC_Greece\MC_Greece\RA6T2_MCIHV1_IPM_LESS_FOC_WHOLE_PFC_E2S_V100\src\application\motor_module\sensorless_vector\libr_motor_sensorless_vector_flyingstart.a(r_motor_sensorless_vector_flyingstart.o)
 .debug_ranges  0x00002bb8      0x198 C:\Users\a5143778\Documents\MC_Greece\MC_Greece\RA6T2_MCIHV1_IPM_LESS_FOC_WHOLE_PFC_E2S_V100\src\application\motor_module\speed\libr_motor_speed_extobserver.a(r_motor_speed_extobserver.o)
 .debug_ranges  0x00002d50      0x1e8 C:\Users\a5143778\Documents\MC_Greece\MC_Greece\RA6T2_MCIHV1_IPM_LESS_FOC_WHOLE_PFC_E2S_V100\src\application\motor_module\speed\libr_motor_speed_fluxwkn.a(r_motor_speed_fluxwkn.o)

.debug_line     0x00000000    0x16f76
 .debug_line    0x00000000      0x977 ./src/application/user_interface/ics/r_mtr_ics.o
 .debug_line    0x00000977      0x931 ./src/application/system_module/system_manager/r_system_manager_api.o
 .debug_line    0x000012a8      0x59e ./src/application/motor_module/speed/r_motor_speed.o
 .debug_line    0x00001846      0x875 ./src/application/motor_module/speed/r_motor_speed_api.o
 .debug_line    0x000020bb      0x33e ./src/application/motor_module/speed/r_motor_speed_mtpa.o
 .debug_line    0x000023f9      0x2ce ./src/application/motor_module/speed/r_motor_speed_pi_gain_calc.o
 .debug_line    0x000026c7      0x672 ./src/application/motor_module/sensorless_vector/r_motor_sensorless_vector_action.o
 .debug_line    0x00002d39      0xb09 ./src/application/motor_module/sensorless_vector/r_motor_sensorless_vector_api.o
 .debug_line    0x00003842      0xdad ./src/application/motor_module/sensorless_vector/r_motor_sensorless_vector_manager.o
 .debug_line    0x000045ef      0x784 ./src/application/motor_module/sensorless_vector/r_motor_sensorless_vector_protection.o
 .debug_line    0x00004d73      0x2c9 ./src/application/motor_module/sensorless_vector/r_motor_sensorless_vector_statemachine.o
 .debug_line    0x0000503c      0x595 ./src/application/motor_module/general/r_motor_filter.o
 .debug_line    0x000055d1      0x192 ./src/application/motor_module/general/r_motor_pi_control.o
 .debug_line    0x00005763      0x449 ./src/application/motor_module/driver/r_motor_driver.o
 .debug_line    0x00005bac      0x7af ./src/application/motor_module/driver/r_motor_driver_fsp.o
 .debug_line    0x0000635b      0x90c ./src/application/motor_module/current/r_motor_current.o
 .debug_line    0x00006c67      0xa50 ./src/application/motor_module/current/r_motor_current_api.o
 .debug_line    0x000076b7      0x3f8 ./src/application/motor_module/current/r_motor_current_modulation.o
 .debug_line    0x00007aaf      0x35b ./src/application/motor_module/current/r_motor_current_pi_gain_calc.o
 .debug_line    0x00007e0a      0xb1a ./src/application/main/mtr_main.o
 .debug_line    0x00008924      0x3f7 ./src/hal_entry.o
 .debug_line    0x00008d1b      0x3cc ./ra_gen/common_data.o
 .debug_line    0x000090e7      0x48c ./ra_gen/hal_data.o
 .debug_line    0x00009573       0x5e ./ra_gen/main.o
 .debug_line    0x000095d1      0x311 ./ra_gen/pin_data.o
 .debug_line    0x000098e2      0x1bc ./ra_gen/vector_data.o
 .debug_line    0x00009a9e      0x955 ./ra/fsp/src/r_poeg/r_poeg.o
 .debug_line    0x0000a3f3      0xb45 ./ra/fsp/src/r_ioport/r_ioport.o
 .debug_line    0x0000af38      0x688 ./ra/fsp/src/r_gpt_three_phase/r_gpt_three_phase.o
 .debug_line    0x0000b5c0     0x1bba ./ra/fsp/src/r_gpt/r_gpt.o
 .debug_line    0x0000d17a     0x12d9 ./ra/fsp/src/r_agt/r_agt.o
 .debug_line    0x0000e453     0x2155 ./ra/fsp/src/r_adc_b/r_adc_b.o
 .debug_line    0x000105a8      0x802 ./ra/fsp/src/bsp/mcu/all/bsp_clocks.o
 .debug_line    0x00010daa      0x36b ./ra/fsp/src/bsp/mcu/all/bsp_common.o
 .debug_line    0x00011115      0x2f9 ./ra/fsp/src/bsp/mcu/all/bsp_delay.o
 .debug_line    0x0001140e      0x40b ./ra/fsp/src/bsp/mcu/all/bsp_group_irq.o
 .debug_line    0x00011819      0x221 ./ra/fsp/src/bsp/mcu/all/bsp_io.o
 .debug_line    0x00011a3a      0x5b7 ./ra/fsp/src/bsp/mcu/all/bsp_irq.o
 .debug_line    0x00011ff1      0x4c1 ./ra/fsp/src/bsp/mcu/all/bsp_register_protection.o
 .debug_line    0x000124b2      0x1ac ./ra/fsp/src/bsp/mcu/all/bsp_rom_registers.o
 .debug_line    0x0001265e      0x28d ./ra/fsp/src/bsp/cmsis/Device/RENESAS/Source/startup.o
 .debug_line    0x000128eb      0x787 ./ra/fsp/src/bsp/cmsis/Device/RENESAS/Source/system.o
 .debug_line    0x00013072      0xdb2 C:/Users/a5143778/Documents/MC_Greece/MC_Greece/RA6T2_MCIHV1_IPM_LESS_FOC_WHOLE_PFC_E2S_V100/src/application/user_interface/ics/ICS2_RA6T2.o(ICS2_RA6T2.o)
 .debug_line    0x00013e24      0x619 C:\Users\a5143778\Documents\MC_Greece\MC_Greece\RA6T2_MCIHV1_IPM_LESS_FOC_WHOLE_PFC_E2S_V100\src\application\motor_module\current\libr_motor_current_bemf_observer.a(r_motor_current_bemf_observer.o)
 .debug_line    0x0001443d      0x4cc C:\Users\a5143778\Documents\MC_Greece\MC_Greece\RA6T2_MCIHV1_IPM_LESS_FOC_WHOLE_PFC_E2S_V100\src\application\motor_module\current\libr_motor_current_lowspd_sensorless.a(r_motor_current_lowspd_sensorless.o)
 .debug_line    0x00014909      0x378 C:\Users\a5143778\Documents\MC_Greece\MC_Greece\RA6T2_MCIHV1_IPM_LESS_FOC_WHOLE_PFC_E2S_V100\src\application\motor_module\current\libr_motor_current_stall_detection.a(r_motor_current_stall_detection.o)
 .debug_line    0x00014c81      0x75d C:\Users\a5143778\Documents\MC_Greece\MC_Greece\RA6T2_MCIHV1_IPM_LESS_FOC_WHOLE_PFC_E2S_V100\src\application\motor_module\current\libr_motor_current_trq_vib_comp.a(r_motor_current_trq_vib_comp.o)
 .debug_line    0x000153de      0x890 C:\Users\a5143778\Documents\MC_Greece\MC_Greece\RA6T2_MCIHV1_IPM_LESS_FOC_WHOLE_PFC_E2S_V100\src\application\motor_module\current\libr_motor_current_volt_err_comp.a(r_motor_current_volt_err_comp.o)
 .debug_line    0x00015c6e      0x70d C:\Users\a5143778\Documents\MC_Greece\MC_Greece\RA6T2_MCIHV1_IPM_LESS_FOC_WHOLE_PFC_E2S_V100\src\application\motor_module\sensorless_vector\libr_motor_sensorless_vector_flyingstart.a(r_motor_sensorless_vector_flyingstart.o)
 .debug_line    0x0001637b      0x427 C:\Users\a5143778\Documents\MC_Greece\MC_Greece\RA6T2_MCIHV1_IPM_LESS_FOC_WHOLE_PFC_E2S_V100\src\application\motor_module\speed\libr_motor_speed_extobserver.a(r_motor_speed_extobserver.o)
 .debug_line    0x000167a2      0x7d4 C:\Users\a5143778\Documents\MC_Greece\MC_Greece\RA6T2_MCIHV1_IPM_LESS_FOC_WHOLE_PFC_E2S_V100\src\application\motor_module\speed\libr_motor_speed_fluxwkn.a(r_motor_speed_fluxwkn.o)

.debug_str      0x00000000    0x185fe
 .debug_str     0x00000000    0x185fe ./src/application/user_interface/ics/r_mtr_ics.o
                               0x294b (size before relaxing)
 .debug_str     0x000185fe     0x1990 ./src/application/system_module/system_manager/r_system_manager_api.o
 .debug_str     0x000185fe      0x88e ./src/application/motor_module/speed/r_motor_speed.o
 .debug_str     0x000185fe     0x148f ./src/application/motor_module/speed/r_motor_speed_api.o
 .debug_str     0x000185fe      0x3a5 ./src/application/motor_module/speed/r_motor_speed_mtpa.o
 .debug_str     0x000185fe      0x695 ./src/application/motor_module/speed/r_motor_speed_pi_gain_calc.o
 .debug_str     0x000185fe     0x153e ./src/application/motor_module/sensorless_vector/r_motor_sensorless_vector_action.o
 .debug_str     0x000185fe     0x1c97 ./src/application/motor_module/sensorless_vector/r_motor_sensorless_vector_api.o
 .debug_str     0x000185fe     0x1a0a ./src/application/motor_module/sensorless_vector/r_motor_sensorless_vector_manager.o
 .debug_str     0x000185fe     0x155d ./src/application/motor_module/sensorless_vector/r_motor_sensorless_vector_protection.o
 .debug_str     0x000185fe      0x44e ./src/application/motor_module/sensorless_vector/r_motor_sensorless_vector_statemachine.o
 .debug_str     0x000185fe      0x598 ./src/application/motor_module/general/r_motor_filter.o
 .debug_str     0x000185fe      0x302 ./src/application/motor_module/general/r_motor_pi_control.o
 .debug_str     0x000185fe      0x61c ./src/application/motor_module/driver/r_motor_driver.o
 .debug_str     0x000185fe     0x5f1b ./src/application/motor_module/driver/r_motor_driver_fsp.o
 .debug_str     0x000185fe      0xfaa ./src/application/motor_module/current/r_motor_current.o
 .debug_str     0x000185fe     0x156c ./src/application/motor_module/current/r_motor_current_api.o
 .debug_str     0x000185fe      0x40f ./src/application/motor_module/current/r_motor_current_modulation.o
 .debug_str     0x000185fe      0xc02 ./src/application/motor_module/current/r_motor_current_pi_gain_calc.o
 .debug_str     0x000185fe     0x7383 ./src/application/main/mtr_main.o
 .debug_str     0x000185fe     0x33b4 ./src/hal_entry.o
 .debug_str     0x000185fe     0x4f23 ./ra_gen/common_data.o
 .debug_str     0x000185fe     0x9c13 ./ra_gen/hal_data.o
 .debug_str     0x000185fe      0x1ed ./ra_gen/main.o
 .debug_str     0x000185fe     0x3984 ./ra_gen/pin_data.o
 .debug_str     0x000185fe     0x1ea5 ./ra_gen/vector_data.o
 .debug_str     0x000185fe     0x4982 ./ra/fsp/src/r_poeg/r_poeg.o
 .debug_str     0x000185fe     0x56f6 ./ra/fsp/src/r_ioport/r_ioport.o
 .debug_str     0x000185fe     0x541a ./ra/fsp/src/r_gpt_three_phase/r_gpt_three_phase.o
 .debug_str     0x000185fe     0x8c94 ./ra/fsp/src/r_gpt/r_gpt.o
 .debug_str     0x000185fe     0x6a00 ./ra/fsp/src/r_agt/r_agt.o
 .debug_str     0x000185fe     0x972c ./ra/fsp/src/r_adc_b/r_adc_b.o
 .debug_str     0x000185fe     0x3dcb ./ra/fsp/src/bsp/mcu/all/bsp_clocks.o
 .debug_str     0x000185fe     0x382e ./ra/fsp/src/bsp/mcu/all/bsp_common.o
 .debug_str     0x000185fe      0x316 ./ra/fsp/src/bsp/mcu/all/bsp_delay.o
 .debug_str     0x000185fe     0x3d95 ./ra/fsp/src/bsp/mcu/all/bsp_group_irq.o
 .debug_str     0x000185fe     0x1e0a ./ra/fsp/src/bsp/mcu/all/bsp_io.o
 .debug_str     0x000185fe     0x284b ./ra/fsp/src/bsp/mcu/all/bsp_irq.o
 .debug_str     0x000185fe     0x3761 ./ra/fsp/src/bsp/mcu/all/bsp_register_protection.o
 .debug_str     0x000185fe     0x1f3e ./ra/fsp/src/bsp/mcu/all/bsp_rom_registers.o
 .debug_str     0x000185fe     0x1e72 ./ra/fsp/src/bsp/cmsis/Device/RENESAS/Source/startup.o
 .debug_str     0x000185fe     0x2af3 ./ra/fsp/src/bsp/cmsis/Device/RENESAS/Source/system.o
 .debug_str     0x000185fe      0x390 C:/Users/a5143778/Documents/MC_Greece/MC_Greece/RA6T2_MCIHV1_IPM_LESS_FOC_WHOLE_PFC_E2S_V100/src/application/user_interface/ics/ICS2_RA6T2.o(ICS2_RA6T2.o)
 .debug_str     0x000185fe      0x6ec C:\Users\a5143778\Documents\MC_Greece\MC_Greece\RA6T2_MCIHV1_IPM_LESS_FOC_WHOLE_PFC_E2S_V100\src\application\motor_module\current\libr_motor_current_bemf_observer.a(r_motor_current_bemf_observer.o)
 .debug_str     0x000185fe      0x5ef C:\Users\a5143778\Documents\MC_Greece\MC_Greece\RA6T2_MCIHV1_IPM_LESS_FOC_WHOLE_PFC_E2S_V100\src\application\motor_module\current\libr_motor_current_lowspd_sensorless.a(r_motor_current_lowspd_sensorless.o)
 .debug_str     0x000185fe      0x3e6 C:\Users\a5143778\Documents\MC_Greece\MC_Greece\RA6T2_MCIHV1_IPM_LESS_FOC_WHOLE_PFC_E2S_V100\src\application\motor_module\current\libr_motor_current_stall_detection.a(r_motor_current_stall_detection.o)
 .debug_str     0x000185fe      0x644 C:\Users\a5143778\Documents\MC_Greece\MC_Greece\RA6T2_MCIHV1_IPM_LESS_FOC_WHOLE_PFC_E2S_V100\src\application\motor_module\current\libr_motor_current_trq_vib_comp.a(r_motor_current_trq_vib_comp.o)
 .debug_str     0x000185fe      0x3f4 C:\Users\a5143778\Documents\MC_Greece\MC_Greece\RA6T2_MCIHV1_IPM_LESS_FOC_WHOLE_PFC_E2S_V100\src\application\motor_module\current\libr_motor_current_volt_err_comp.a(r_motor_current_volt_err_comp.o)
 .debug_str     0x000185fe      0x534 C:\Users\a5143778\Documents\MC_Greece\MC_Greece\RA6T2_MCIHV1_IPM_LESS_FOC_WHOLE_PFC_E2S_V100\src\application\motor_module\sensorless_vector\libr_motor_sensorless_vector_flyingstart.a(r_motor_sensorless_vector_flyingstart.o)
 .debug_str     0x000185fe      0x63a C:\Users\a5143778\Documents\MC_Greece\MC_Greece\RA6T2_MCIHV1_IPM_LESS_FOC_WHOLE_PFC_E2S_V100\src\application\motor_module\speed\libr_motor_speed_extobserver.a(r_motor_speed_extobserver.o)
 .debug_str     0x000185fe      0x5ac C:\Users\a5143778\Documents\MC_Greece\MC_Greece\RA6T2_MCIHV1_IPM_LESS_FOC_WHOLE_PFC_E2S_V100\src\application\motor_module\speed\libr_motor_speed_fluxwkn.a(r_motor_speed_fluxwkn.o)

.debug_frame    0x00000000     0x2bcc
 .debug_frame   0x00000000       0xd4 ./src/application/user_interface/ics/r_mtr_ics.o
 .debug_frame   0x000000d4       0xb4 ./src/application/system_module/system_manager/r_system_manager_api.o
 .debug_frame   0x00000188       0xb8 ./src/application/motor_module/speed/r_motor_speed.o
 .debug_frame   0x00000240      0x188 ./src/application/motor_module/speed/r_motor_speed_api.o
 .debug_frame   0x000003c8       0x50 ./src/application/motor_module/speed/r_motor_speed_mtpa.o
 .debug_frame   0x00000418       0x20 ./src/application/motor_module/speed/r_motor_speed_pi_gain_calc.o
 .debug_frame   0x00000438       0x80 ./src/application/motor_module/sensorless_vector/r_motor_sensorless_vector_action.o
 .debug_frame   0x000004b8      0x18c ./src/application/motor_module/sensorless_vector/r_motor_sensorless_vector_api.o
 .debug_frame   0x00000644       0xe0 ./src/application/motor_module/sensorless_vector/r_motor_sensorless_vector_manager.o
 .debug_frame   0x00000724       0x34 ./src/application/motor_module/sensorless_vector/r_motor_sensorless_vector_protection.o
 .debug_frame   0x00000758       0x5c ./src/application/motor_module/sensorless_vector/r_motor_sensorless_vector_statemachine.o
 .debug_frame   0x000007b4      0x120 ./src/application/motor_module/general/r_motor_filter.o
 .debug_frame   0x000008d4       0x8c ./src/application/motor_module/general/r_motor_pi_control.o
 .debug_frame   0x00000960      0x120 ./src/application/motor_module/driver/r_motor_driver.o
 .debug_frame   0x00000a80      0x154 ./src/application/motor_module/driver/r_motor_driver_fsp.o
 .debug_frame   0x00000bd4      0x128 ./src/application/motor_module/current/r_motor_current.o
 .debug_frame   0x00000cfc      0x1d4 ./src/application/motor_module/current/r_motor_current_api.o
 .debug_frame   0x00000ed0       0xac ./src/application/motor_module/current/r_motor_current_modulation.o
 .debug_frame   0x00000f7c       0x20 ./src/application/motor_module/current/r_motor_current_pi_gain_calc.o
 .debug_frame   0x00000f9c       0xc8 ./src/application/main/mtr_main.o
 .debug_frame   0x00001064       0x38 ./src/hal_entry.o
 .debug_frame   0x0000109c       0x20 ./ra_gen/common_data.o
 .debug_frame   0x000010bc       0x20 ./ra_gen/hal_data.o
 .debug_frame   0x000010dc       0x28 ./ra_gen/main.o
 .debug_frame   0x00001104       0xb0 ./ra/fsp/src/r_poeg/r_poeg.o
 .debug_frame   0x000011b4      0x150 ./ra/fsp/src/r_ioport/r_ioport.o
 .debug_frame   0x00001304       0xa4 ./ra/fsp/src/r_gpt_three_phase/r_gpt_three_phase.o
 .debug_frame   0x000013a8      0x2c0 ./ra/fsp/src/r_gpt/r_gpt.o
 .debug_frame   0x00001668      0x1b4 ./ra/fsp/src/r_agt/r_agt.o
 .debug_frame   0x0000181c      0x42c ./ra/fsp/src/r_adc_b/r_adc_b.o
 .debug_frame   0x00001c48       0xc0 ./ra/fsp/src/bsp/mcu/all/bsp_clocks.o
 .debug_frame   0x00001d08       0x40 ./ra/fsp/src/bsp/mcu/all/bsp_common.o
 .debug_frame   0x00001d48       0x48 ./ra/fsp/src/bsp/mcu/all/bsp_delay.o
 .debug_frame   0x00001d90       0x3c ./ra/fsp/src/bsp/mcu/all/bsp_group_irq.o
 .debug_frame   0x00001dcc       0x30 ./ra/fsp/src/bsp/mcu/all/bsp_irq.o
 .debug_frame   0x00001dfc       0x48 ./ra/fsp/src/bsp/mcu/all/bsp_register_protection.o
 .debug_frame   0x00001e44       0x38 ./ra/fsp/src/bsp/cmsis/Device/RENESAS/Source/startup.o
 .debug_frame   0x00001e7c       0x44 ./ra/fsp/src/bsp/cmsis/Device/RENESAS/Source/system.o
 .debug_frame   0x00001ec0       0x88 C:/Users/a5143778/Documents/MC_Greece/MC_Greece/RA6T2_MCIHV1_IPM_LESS_FOC_WHOLE_PFC_E2S_V100/src/application/user_interface/ics/ICS2_RA6T2.o(ICS2_RA6T2.o)
 .debug_frame   0x00001f48       0xe0 C:\Users\a5143778\Documents\MC_Greece\MC_Greece\RA6T2_MCIHV1_IPM_LESS_FOC_WHOLE_PFC_E2S_V100\src\application\motor_module\current\libr_motor_current_bemf_observer.a(r_motor_current_bemf_observer.o)
 .debug_frame   0x00002028       0xa8 C:\Users\a5143778\Documents\MC_Greece\MC_Greece\RA6T2_MCIHV1_IPM_LESS_FOC_WHOLE_PFC_E2S_V100\src\application\motor_module\current\libr_motor_current_lowspd_sensorless.a(r_motor_current_lowspd_sensorless.o)
 .debug_frame   0x000020d0       0x74 C:\Users\a5143778\Documents\MC_Greece\MC_Greece\RA6T2_MCIHV1_IPM_LESS_FOC_WHOLE_PFC_E2S_V100\src\application\motor_module\current\libr_motor_current_stall_detection.a(r_motor_current_stall_detection.o)
 .debug_frame   0x00002144       0xec C:\Users\a5143778\Documents\MC_Greece\MC_Greece\RA6T2_MCIHV1_IPM_LESS_FOC_WHOLE_PFC_E2S_V100\src\application\motor_module\current\libr_motor_current_trq_vib_comp.a(r_motor_current_trq_vib_comp.o)
 .debug_frame   0x00002230       0x88 C:\Users\a5143778\Documents\MC_Greece\MC_Greece\RA6T2_MCIHV1_IPM_LESS_FOC_WHOLE_PFC_E2S_V100\src\application\motor_module\current\libr_motor_current_volt_err_comp.a(r_motor_current_volt_err_comp.o)
 .debug_frame   0x000022b8       0xa8 C:\Users\a5143778\Documents\MC_Greece\MC_Greece\RA6T2_MCIHV1_IPM_LESS_FOC_WHOLE_PFC_E2S_V100\src\application\motor_module\sensorless_vector\libr_motor_sensorless_vector_flyingstart.a(r_motor_sensorless_vector_flyingstart.o)
 .debug_frame   0x00002360       0xb0 C:\Users\a5143778\Documents\MC_Greece\MC_Greece\RA6T2_MCIHV1_IPM_LESS_FOC_WHOLE_PFC_E2S_V100\src\application\motor_module\speed\libr_motor_speed_extobserver.a(r_motor_speed_extobserver.o)
 .debug_frame   0x00002410       0xf8 C:\Users\a5143778\Documents\MC_Greece\MC_Greece\RA6T2_MCIHV1_IPM_LESS_FOC_WHOLE_PFC_E2S_V100\src\application\motor_module\speed\libr_motor_speed_fluxwkn.a(r_motor_speed_fluxwkn.o)
 .debug_frame   0x00002508       0xac C:/Program Files (x86)/Arm GNU Toolchain arm-none-eabi/13.3 rel1/bin/../lib/gcc/arm-none-eabi/13.3.1/thumb/v8-m.main+fp/hard\libgcc.a(_arm_addsubdf3.o)
 .debug_frame   0x000025b4       0x24 C:/Program Files (x86)/Arm GNU Toolchain arm-none-eabi/13.3 rel1/bin/../lib/gcc/arm-none-eabi/13.3.1/thumb/v8-m.main+fp/hard\libgcc.a(_arm_truncdfsf2.o)
 .debug_frame   0x000025d8      0x144 C:/Program Files (x86)/Arm GNU Toolchain arm-none-eabi/13.3 rel1/bin/../lib/gcc/arm-none-eabi/13.3.1/thumb/v8-m.main+fp/hard\libg_nano.a(libc_a-findfp.o)
 .debug_frame   0x0000271c       0x20 C:/Program Files (x86)/Arm GNU Toolchain arm-none-eabi/13.3 rel1/bin/../lib/gcc/arm-none-eabi/13.3.1/thumb/v8-m.main+fp/hard\libg_nano.a(libc_a-memset.o)
 .debug_frame   0x0000273c       0x20 C:/Program Files (x86)/Arm GNU Toolchain arm-none-eabi/13.3 rel1/bin/../lib/gcc/arm-none-eabi/13.3.1/thumb/v8-m.main+fp/hard\libg_nano.a(libc_a-errno.o)
 .debug_frame   0x0000275c       0x28 C:/Program Files (x86)/Arm GNU Toolchain arm-none-eabi/13.3 rel1/bin/../lib/gcc/arm-none-eabi/13.3.1/thumb/v8-m.main+fp/hard\libg_nano.a(libc_a-memcpy-stub.o)
 .debug_frame   0x00002784       0x48 C:/Program Files (x86)/Arm GNU Toolchain arm-none-eabi/13.3 rel1/bin/../lib/gcc/arm-none-eabi/13.3.1/thumb/v8-m.main+fp/hard\libm.a(libm_a-w_sqrt.o)
 .debug_frame   0x000027cc       0x20 C:/Program Files (x86)/Arm GNU Toolchain arm-none-eabi/13.3 rel1/bin/../lib/gcc/arm-none-eabi/13.3.1/thumb/v8-m.main+fp/hard\libm.a(libm_a-wf_atan2.o)
 .debug_frame   0x000027ec       0x44 C:/Program Files (x86)/Arm GNU Toolchain arm-none-eabi/13.3 rel1/bin/../lib/gcc/arm-none-eabi/13.3.1/thumb/v8-m.main+fp/hard\libm.a(libm_a-wf_sqrt.o)
 .debug_frame   0x00002830       0x2c C:/Program Files (x86)/Arm GNU Toolchain arm-none-eabi/13.3 rel1/bin/../lib/gcc/arm-none-eabi/13.3.1/thumb/v8-m.main+fp/hard\libm.a(libm_a-sf_atan.o)
 .debug_frame   0x0000285c       0x34 C:/Program Files (x86)/Arm GNU Toolchain arm-none-eabi/13.3 rel1/bin/../lib/gcc/arm-none-eabi/13.3.1/thumb/v8-m.main+fp/hard\libm.a(libm_a-sf_cos.o)
 .debug_frame   0x00002890       0x20 C:/Program Files (x86)/Arm GNU Toolchain arm-none-eabi/13.3 rel1/bin/../lib/gcc/arm-none-eabi/13.3.1/thumb/v8-m.main+fp/hard\libm.a(libm_a-sf_fabs.o)
 .debug_frame   0x000028b0       0x34 C:/Program Files (x86)/Arm GNU Toolchain arm-none-eabi/13.3 rel1/bin/../lib/gcc/arm-none-eabi/13.3.1/thumb/v8-m.main+fp/hard\libm.a(libm_a-sf_sin.o)
 .debug_frame   0x000028e4       0x38 C:/Program Files (x86)/Arm GNU Toolchain arm-none-eabi/13.3 rel1/bin/../lib/gcc/arm-none-eabi/13.3.1/thumb/v8-m.main+fp/hard\libm.a(libm_a-e_sqrt.o)
 .debug_frame   0x0000291c       0x20 C:/Program Files (x86)/Arm GNU Toolchain arm-none-eabi/13.3 rel1/bin/../lib/gcc/arm-none-eabi/13.3.1/thumb/v8-m.main+fp/hard\libm.a(libm_a-ef_sqrt.o)
 .debug_frame   0x0000293c       0x20 C:/Program Files (x86)/Arm GNU Toolchain arm-none-eabi/13.3 rel1/bin/../lib/gcc/arm-none-eabi/13.3.1/thumb/v8-m.main+fp/hard\libm.a(libm_a-kf_cos.o)
 .debug_frame   0x0000295c       0x20 C:/Program Files (x86)/Arm GNU Toolchain arm-none-eabi/13.3 rel1/bin/../lib/gcc/arm-none-eabi/13.3.1/thumb/v8-m.main+fp/hard\libm.a(libm_a-kf_sin.o)
 .debug_frame   0x0000297c       0x4c C:/Program Files (x86)/Arm GNU Toolchain arm-none-eabi/13.3 rel1/bin/../lib/gcc/arm-none-eabi/13.3.1/thumb/v8-m.main+fp/hard\libm.a(libm_a-ef_atan2.o)
 .debug_frame   0x000029c8       0x34 C:/Program Files (x86)/Arm GNU Toolchain arm-none-eabi/13.3 rel1/bin/../lib/gcc/arm-none-eabi/13.3.1/thumb/v8-m.main+fp/hard\libm.a(libm_a-ef_rem_pio2.o)
 .debug_frame   0x000029fc       0x5c C:/Program Files (x86)/Arm GNU Toolchain arm-none-eabi/13.3 rel1/bin/../lib/gcc/arm-none-eabi/13.3.1/thumb/v8-m.main+fp/hard\libm.a(libm_a-kf_rem_pio2.o)
 .debug_frame   0x00002a58       0x20 C:/Program Files (x86)/Arm GNU Toolchain arm-none-eabi/13.3 rel1/bin/../lib/gcc/arm-none-eabi/13.3.1/thumb/v8-m.main+fp/hard\libm.a(libm_a-sf_scalbn.o)
 .debug_frame   0x00002a78       0x20 C:/Program Files (x86)/Arm GNU Toolchain arm-none-eabi/13.3 rel1/bin/../lib/gcc/arm-none-eabi/13.3.1/thumb/v8-m.main+fp/hard\libm.a(libm_a-sf_floor.o)
 .debug_frame   0x00002a98       0x50 C:/Program Files (x86)/Arm GNU Toolchain arm-none-eabi/13.3 rel1/bin/../lib/gcc/arm-none-eabi/13.3.1/thumb/v8-m.main+fp/hard\libgcc.a(_arm_muldivdf3.o)
 .debug_frame   0x00002ae8       0xc4 C:/Program Files (x86)/Arm GNU Toolchain arm-none-eabi/13.3 rel1/bin/../lib/gcc/arm-none-eabi/13.3.1/thumb/v8-m.main+fp/hard\libgcc.a(_arm_cmpdf2.o)
 .debug_frame   0x00002bac       0x20 C:/Program Files (x86)/Arm GNU Toolchain arm-none-eabi/13.3 rel1/bin/../lib/gcc/arm-none-eabi/13.3.1/thumb/v8-m.main+fp/hard\libgcc.a(_arm_unorddf2.o)

.debug_line_str
                0x00000000      0x1c1
 .debug_line_str
                0x00000000      0x1c1 C:/Program Files (x86)/Arm GNU Toolchain arm-none-eabi/13.3 rel1/bin/../lib/gcc/arm-none-eabi/13.3.1/thumb/v8-m.main+fp/hard\libgcc.a(_arm_addsubdf3.o)
                                 0xd2 (size before relaxing)
 .debug_line_str
                0x000001c1       0xd2 C:/Program Files (x86)/Arm GNU Toolchain arm-none-eabi/13.3 rel1/bin/../lib/gcc/arm-none-eabi/13.3.1/thumb/v8-m.main+fp/hard\libgcc.a(_arm_truncdfsf2.o)
 .debug_line_str
                0x000001c1       0xef C:/Program Files (x86)/Arm GNU Toolchain arm-none-eabi/13.3 rel1/bin/../lib/gcc/arm-none-eabi/13.3.1/thumb/v8-m.main+fp/hard\libc_nano.a(libc_a-strlen.o)
 .debug_line_str
                0x000001c1       0xd2 C:/Program Files (x86)/Arm GNU Toolchain arm-none-eabi/13.3 rel1/bin/../lib/gcc/arm-none-eabi/13.3.1/thumb/v8-m.main+fp/hard\libgcc.a(_arm_muldivdf3.o)
 .debug_line_str
                0x000001c1       0xd2 C:/Program Files (x86)/Arm GNU Toolchain arm-none-eabi/13.3 rel1/bin/../lib/gcc/arm-none-eabi/13.3.1/thumb/v8-m.main+fp/hard\libgcc.a(_arm_cmpdf2.o)
 .debug_line_str
                0x000001c1       0xd2 C:/Program Files (x86)/Arm GNU Toolchain arm-none-eabi/13.3 rel1/bin/../lib/gcc/arm-none-eabi/13.3.1/thumb/v8-m.main+fp/hard\libgcc.a(_arm_unorddf2.o)
